(dp0
(Vmass_73.028_organic_compounds
p1
VNPL
p2
tp3
ccopy_reg
_reconstructor
p4
(cnilutility.datatypes
DataObject
p5
c__builtin__
dict
p6
(dp7
S'CA_COMMENT'
p8
NsS'CO_COMP_NAME'
p9
g1
sS'SYSTIME'
p10
g4
(cnilutility.datetime_helper
DatetimeInterval
p11
c__builtin__
list
p12
(lp13
cdatetime
datetime
p14
(S'\x07\xe9\x01\x1f\x07\x05\x1a\x0ci\x07'
p15
tp16
Rp17
aNatp18
Rp19
(dp20
S'bounds'
p21
S'[)'
p22
sbsS'CA_CALIBRATION_SCALE'
p23
g2
sS'CA_DESC'
p24
Nstp25
Rp26
s(Vm-p-xylene
p27
VNPL
p28
tp29
g4
(g5
g6
(dp30
S'CA_COMMENT'
p31
NsS'CO_COMP_NAME'
p32
g27
sS'SYSTIME'
p33
g4
(g11
g12
(lp34
g14
(S'\x07\xde\x05\x01\x00\x00\x00\x00\x00\x00'
p35
tp36
Rp37
aNatp38
Rp39
(dp40
g21
S'[)'
p41
sbsS'CA_CALIBRATION_SCALE'
p42
g28
sS'CA_DESC'
p43
Nstp44
Rp45
s(Vethyl_acetate
p46
VNPL
p47
tp48
g4
(g5
g6
(dp49
S'CA_COMMENT'
p50
NsS'CO_COMP_NAME'
p51
g46
sS'SYSTIME'
p52
g4
(g11
g12
(lp53
g14
(S'\x07\xe7\x06\x08\x0b\x053\x08\xe0\xa8'
p54
tp55
Rp56
aNatp57
Rp58
(dp59
g21
S'[)'
p60
sbsS'CA_CALIBRATION_SCALE'
p61
g47
sS'CA_DESC'
p62
Nstp63
Rp64
s(V2-methyl-2-butene
p65
VNPL
p66
tp67
g4
(g5
g6
(dp68
S'CA_COMMENT'
p69
NsS'CO_COMP_NAME'
p70
g65
sS'SYSTIME'
p71
g4
(g11
g12
(lp72
g14
(S'\x07\xde\x05\x01\x00\x00\x00\x00\x00\x00'
p73
tp74
Rp75
aNatp76
Rp77
(dp78
g21
S'[)'
p79
sbsS'CA_CALIBRATION_SCALE'
p80
g66
sS'CA_DESC'
p81
Nstp82
Rp83
s(V2-methylhexane
p84
VApel-Riemer
p85
tp86
g4
(g5
g6
(dp87
S'CA_COMMENT'
p88
NsS'CO_COMP_NAME'
p89
g84
sS'SYSTIME'
p90
g4
(g11
g12
(lp91
g14
(S'\x07\xe7\x02\x0f\x0e \x0c\x026\xe3'
p92
tp93
Rp94
aNatp95
Rp96
(dp97
g21
S'[)'
p98
sbsS'CA_CALIBRATION_SCALE'
p99
g85
sS'CA_DESC'
p100
Nstp101
Rp102
s(Vm-p-xylene
p103
VApel-Riemer
p104
tp105
g4
(g5
g6
(dp106
S'CA_COMMENT'
p107
NsS'CO_COMP_NAME'
p108
g103
sS'SYSTIME'
p109
g4
(g11
g12
(lp110
g14
(S'\x07\xe7\x02\x0f\x0e \x0c\x04\xe6\xc5'
p111
tp112
Rp113
aNatp114
Rp115
(dp116
g21
S'[)'
p117
sbsS'CA_CALIBRATION_SCALE'
p118
g104
sS'CA_DESC'
p119
Nstp120
Rp121
s(Vmethyl_tert_butyl_ether
p122
VNPL
p123
tp124
g4
(g5
g6
(dp125
S'CA_COMMENT'
p126
NsS'CO_COMP_NAME'
p127
g122
sS'SYSTIME'
p128
g4
(g11
g12
(lp129
g14
(S'\x07\xe7\x06\x08\x0b\x05(\ts\x9c'
p130
tp131
Rp132
aNatp133
Rp134
(dp135
g21
S'[)'
p136
sbsS'CA_CALIBRATION_SCALE'
p137
g123
sS'CA_DESC'
p138
Nstp139
Rp140
s(Vtoluene
p141
VApel-Riemer
p142
tp143
g4
(g5
g6
(dp144
S'CA_COMMENT'
p145
NsS'CO_COMP_NAME'
p146
g141
sS'SYSTIME'
p147
g4
(g11
g12
(lp148
g14
(S'\x07\xe7\x02\x0f\x0e \x0c\x03\xb5\x19'
p149
tp150
Rp151
aNatp152
Rp153
(dp154
g21
S'[)'
p155
sbsS'CA_CALIBRATION_SCALE'
p156
g142
sS'CA_DESC'
p157
Nstp158
Rp159
s(Vn-tridecane
p160
VNPL
p161
tp162
g4
(g5
g6
(dp163
S'CA_COMMENT'
p164
NsS'CO_COMP_NAME'
p165
g160
sS'SYSTIME'
p166
g4
(g11
g12
(lp167
g14
(S'\x07\xde\x05\x01\x00\x00\x00\x00\x00\x00'
p168
tp169
Rp170
aNatp171
Rp172
(dp173
g21
S'[)'
p174
sbsS'CA_CALIBRATION_SCALE'
p175
g161
sS'CA_DESC'
p176
Nstp177
Rp178
s(V2-propanol
p179
VApel Riemer
p180
tp181
g4
(g5
g6
(dp182
S'CA_COMMENT'
p183
NsS'CO_COMP_NAME'
p184
g179
sS'SYSTIME'
p185
g4
(g11
g12
(lp186
g14
(S"\x07\xe7\x02\x0f\x0e!7\x00E'"
p187
tp188
Rp189
aNatp190
Rp191
(dp192
g21
S'[)'
p193
sbsS'CA_CALIBRATION_SCALE'
p194
g180
sS'CA_DESC'
p195
Nstp196
Rp197
s(Vn-hexane
p198
VApel-Riemer
p199
tp200
g4
(g5
g6
(dp201
S'CA_COMMENT'
p202
NsS'CO_COMP_NAME'
p203
g198
sS'SYSTIME'
p204
g4
(g11
g12
(lp205
g14
(S'\x07\xe7\x02\x0f\x0e \x0c\x01X\x94'
p206
tp207
Rp208
aNatp209
Rp210
(dp211
g21
S'[)'
p212
sbsS'CA_CALIBRATION_SCALE'
p213
g199
sS'CA_DESC'
p214
Nstp215
Rp216
s(V2-methyl-2-butene
p217
VApel Riemer
p218
tp219
g4
(g5
g6
(dp220
S'CA_COMMENT'
p221
NsS'CO_COMP_NAME'
p222
g217
sS'SYSTIME'
p223
g4
(g11
g12
(lp224
g14
(S'\x07\xe7\x02\x0f\x0e!7\x00\xa6\x90'
p225
tp226
Rp227
aNatp228
Rp229
(dp230
g21
S'[)'
p231
sbsS'CA_CALIBRATION_SCALE'
p232
g218
sS'CA_DESC'
p233
Nstp234
Rp235
s(Vsabinene
p236
VNPL
p237
tp238
g4
(g5
g6
(dp239
S'CA_COMMENT'
p240
NsS'CO_COMP_NAME'
p241
g236
sS'SYSTIME'
p242
g4
(g11
g12
(lp243
g14
(S'\x07\xde\x05\x01\x00\x00\x00\x00\x00\x00'
p244
tp245
Rp246
aNatp247
Rp248
(dp249
g21
S'[)'
p250
sbsS'CA_CALIBRATION_SCALE'
p251
g237
sS'CA_DESC'
p252
Nstp253
Rp254
s(Vethylbenzene
p255
VApel-Riemer
p256
tp257
g4
(g5
g6
(dp258
S'CA_COMMENT'
p259
NsS'CO_COMP_NAME'
p260
g255
sS'SYSTIME'
p261
g4
(g11
g12
(lp262
g14
(S'\x07\xe7\x02\x0f\x0e \x0c\x04\xa9\xca'
p263
tp264
Rp265
aNatp266
Rp267
(dp268
g21
S'[)'
p269
sbsS'CA_CALIBRATION_SCALE'
p270
g256
sS'CA_DESC'
p271
Nstp272
Rp273
s(V2-4-dimethylpentane
p274
VNPL
p275
tp276
g4
(g5
g6
(dp277
S'CA_COMMENT'
p278
NsS'CO_COMP_NAME'
p279
g274
sS'SYSTIME'
p280
g4
(g11
g12
(lp281
g14
(S'\x07\xde\x05\x01\x00\x00\x00\x00\x00\x00'
p282
tp283
Rp284
aNatp285
Rp286
(dp287
g21
S'[)'
p288
sbsS'CA_CALIBRATION_SCALE'
p289
g275
sS'CA_DESC'
p290
Nstp291
Rp292
s(V2-methylpentane
p293
VApel Riemer
p294
tp295
g4
(g5
g6
(dp296
S'CA_COMMENT'
p297
NsS'CO_COMP_NAME'
p298
g293
sS'SYSTIME'
p299
g4
(g11
g12
(lp300
g14
(S'\x07\xe7\x02\x0f\x0e!7\x01J\xf5'
p301
tp302
Rp303
aNatp304
Rp305
(dp306
g21
S'[)'
p307
sbsS'CA_CALIBRATION_SCALE'
p308
g294
sS'CA_DESC'
p309
Nstp310
Rp311
s(V3-carene
p312
VNPL
p313
tp314
g4
(g5
g6
(dp315
S'CA_COMMENT'
p316
NsS'CO_COMP_NAME'
p317
g312
sS'SYSTIME'
p318
g4
(g11
g12
(lp319
g14
(S'\x07\xde\x05\x01\x00\x00\x00\x00\x00\x00'
p320
tp321
Rp322
aNatp323
Rp324
(dp325
g21
S'[)'
p326
sbsS'CA_CALIBRATION_SCALE'
p327
g313
sS'CA_DESC'
p328
Nstp329
Rp330
s(Vethanol
p331
VNPL
p332
tp333
g4
(g5
g6
(dp334
S'CA_COMMENT'
p335
NsS'CO_COMP_NAME'
p336
g331
sS'SYSTIME'
p337
g4
(g11
g12
(lp338
g14
(S'\x07\xde\x05\x01\x00\x00\x00\x00\x00\x00'
p339
tp340
Rp341
aNatp342
Rp343
(dp344
g21
S'[)'
p345
sbsS'CA_CALIBRATION_SCALE'
p346
g332
sS'CA_DESC'
p347
Nstp348
Rp349
s(V1-butene
p350
VNPL
p351
tp352
g4
(g5
g6
(dp353
S'CA_COMMENT'
p354
NsS'CO_COMP_NAME'
p355
g350
sS'SYSTIME'
p356
g4
(g11
g12
(lp357
g14
(S'\x07\xde\x05\x01\x00\x00\x00\x00\x00\x00'
p358
tp359
Rp360
aNatp361
Rp362
(dp363
g21
S'[)'
p364
sbsS'CA_CALIBRATION_SCALE'
p365
g351
sS'CA_DESC'
p366
Nstp367
Rp368
s(V1-3-5-trimethylbenzene
p369
VApel Riemer
p370
tp371
g4
(g5
g6
(dp372
S'CA_COMMENT'
p373
NsS'CO_COMP_NAME'
p374
g369
sS'SYSTIME'
p375
g4
(g11
g12
(lp376
g14
(S'\x07\xe7\x02\x0f\x0e!7\x04\x98<'
p377
tp378
Rp379
aNatp380
Rp381
(dp382
g21
S'[)'
p383
sbsS'CA_CALIBRATION_SCALE'
p384
g370
sS'CA_DESC'
p385
Nstp386
Rp387
s(Vethylbenzene
p388
VNPL
p389
tp390
g4
(g5
g6
(dp391
S'CA_COMMENT'
p392
NsS'CO_COMP_NAME'
p393
g388
sS'SYSTIME'
p394
g4
(g11
g12
(lp395
g14
(S'\x07\xde\x05\x01\x00\x00\x00\x00\x00\x00'
p396
tp397
Rp398
aNatp399
Rp400
(dp401
g21
S'[)'
p402
sbsS'CA_CALIBRATION_SCALE'
p403
g389
sS'CA_DESC'
p404
Nstp405
Rp406
s(Vdichloromethane
p407
VNOAA-2003
p408
tp409
g4
(g5
g6
(dp410
S'CA_COMMENT'
p411
NsS'CO_COMP_NAME'
p412
g407
sS'SYSTIME'
p413
g4
(g11
g12
(lp414
g14
(S'\x07\xde\x05\x01\x00\x00\x00\x00\x00\x00'
p415
tp416
Rp417
aNatp418
Rp419
(dp420
g21
S'[)'
p421
sbsS'CA_CALIBRATION_SCALE'
p422
g408
sS'CA_DESC'
p423
Nstp424
Rp425
s(Vn-octane
p426
VNPL
p427
tp428
g4
(g5
g6
(dp429
S'CA_COMMENT'
p430
NsS'CO_COMP_NAME'
p431
g426
sS'SYSTIME'
p432
g4
(g11
g12
(lp433
g14
(S'\x07\xde\x05\x01\x00\x00\x00\x00\x00\x00'
p434
tp435
Rp436
aNatp437
Rp438
(dp439
g21
S'[)'
p440
sbsS'CA_CALIBRATION_SCALE'
p441
g427
sS'CA_DESC'
p442
Nstp443
Rp444
s(Vn-hexane
p445
VNPL
p446
tp447
g4
(g5
g6
(dp448
S'CA_COMMENT'
p449
NsS'CO_COMP_NAME'
p450
g445
sS'SYSTIME'
p451
g4
(g11
g12
(lp452
g14
(S'\x07\xde\x05\x01\x00\x00\x00\x00\x00\x00'
p453
tp454
Rp455
aNatp456
Rp457
(dp458
g21
S'[)'
p459
sbsS'CA_CALIBRATION_SCALE'
p460
g446
sS'CA_DESC'
p461
Nstp462
Rp463
s(Vn-hexadecane
p464
VNPL
p465
tp466
g4
(g5
g6
(dp467
S'CA_COMMENT'
p468
NsS'CO_COMP_NAME'
p469
g464
sS'SYSTIME'
p470
g4
(g11
g12
(lp471
g14
(S'\x07\xde\x05\x01\x00\x00\x00\x00\x00\x00'
p472
tp473
Rp474
aNatp475
Rp476
(dp477
g21
S'[)'
p478
sbsS'CA_CALIBRATION_SCALE'
p479
g465
sS'CA_DESC'
p480
Nstp481
Rp482
s(Vn-heptane
p483
VNPL
p484
tp485
g4
(g5
g6
(dp486
S'CA_COMMENT'
p487
NsS'CO_COMP_NAME'
p488
g483
sS'SYSTIME'
p489
g4
(g11
g12
(lp490
g14
(S'\x07\xde\x05\x01\x00\x00\x00\x00\x00\x00'
p491
tp492
Rp493
aNatp494
Rp495
(dp496
g21
S'[)'
p497
sbsS'CA_CALIBRATION_SCALE'
p498
g484
sS'CA_DESC'
p499
Nstp500
Rp501
s(VPFC-116
p502
VSIO2005
p503
tp504
g4
(g5
g6
(dp505
S'CA_COMMENT'
p506
NsS'CO_COMP_NAME'
p507
g502
sS'SYSTIME'
p508
g4
(g11
g12
(lp509
g14
(S'\x07\xde\x05\x01\x00\x00\x00\x00\x00\x00'
p510
tp511
Rp512
aNatp513
Rp514
(dp515
g21
S'[)'
p516
sbsS'CA_CALIBRATION_SCALE'
p517
g503
sS'CA_DESC'
p518
Nstp519
Rp520
s(Visoheptanes
p521
VNPL
p522
tp523
g4
(g5
g6
(dp524
S'CA_COMMENT'
p525
NsS'CO_COMP_NAME'
p526
g521
sS'SYSTIME'
p527
g4
(g11
g12
(lp528
g14
(S'\x07\xde\x05\x01\x00\x00\x00\x00\x00\x00'
p529
tp530
Rp531
aNatp532
Rp533
(dp534
g21
S'[)'
p535
sbsS'CA_CALIBRATION_SCALE'
p536
g522
sS'CA_DESC'
p537
Nstp538
Rp539
s(Vcamphor
p540
VNPL
p541
tp542
g4
(g5
g6
(dp543
S'CA_COMMENT'
p544
NsS'CO_COMP_NAME'
p545
g540
sS'SYSTIME'
p546
g4
(g11
g12
(lp547
g14
(S'\x07\xde\x05\x01\x00\x00\x00\x00\x00\x00'
p548
tp549
Rp550
aNatp551
Rp552
(dp553
g21
S'[)'
p554
sbsS'CA_CALIBRATION_SCALE'
p555
g541
sS'CA_DESC'
p556
Nstp557
Rp558
s(Vpentenes
p559
VNPL
p560
tp561
g4
(g5
g6
(dp562
S'CA_COMMENT'
p563
NsS'CO_COMP_NAME'
p564
g559
sS'SYSTIME'
p565
g4
(g11
g12
(lp566
g14
(S'\x07\xde\x05\x01\x00\x00\x00\x00\x00\x00'
p567
tp568
Rp569
aNatp570
Rp571
(dp572
g21
S'[)'
p573
sbsS'CA_CALIBRATION_SCALE'
p574
g560
sS'CA_DESC'
p575
Nstp576
Rp577
s(Vn-undecanal
p578
VNPL
p579
tp580
g4
(g5
g6
(dp581
S'CA_COMMENT'
p582
NsS'CO_COMP_NAME'
p583
g578
sS'SYSTIME'
p584
g4
(g11
g12
(lp585
g14
(S'\x07\xde\x05\x01\x00\x00\x00\x00\x00\x00'
p586
tp587
Rp588
aNatp589
Rp590
(dp591
g21
S'[)'
p592
sbsS'CA_CALIBRATION_SCALE'
p593
g579
sS'CA_DESC'
p594
Nstp595
Rp596
s(Vpropanone
p597
VApel Riemer
p598
tp599
g4
(g5
g6
(dp600
S'CA_COMMENT'
p601
NsS'CO_COMP_NAME'
p602
g597
sS'SYSTIME'
p603
g4
(g11
g12
(lp604
g14
(S'\x07\xe7\x02\x0f\x0e!7\x00$p'
p605
tp606
Rp607
aNatp608
Rp609
(dp610
g21
S'[)'
p611
sbsS'CA_CALIBRATION_SCALE'
p612
g598
sS'CA_DESC'
p613
Nstp614
Rp615
s(Vtoluene
p616
VApel Riemer
p617
tp618
g4
(g5
g6
(dp619
S'CA_COMMENT'
p620
NsS'CO_COMP_NAME'
p621
g616
sS'SYSTIME'
p622
g4
(g11
g12
(lp623
g14
(S'\x07\xe7\x02\x0f\x0e!7\x033\x1e'
p624
tp625
Rp626
aNatp627
Rp628
(dp629
g21
S'[)'
p630
sbsS'CA_CALIBRATION_SCALE'
p631
g617
sS'CA_DESC'
p632
Nstp633
Rp634
s(Vnitrogen_trifluoride
p635
VSIO2005
p636
tp637
g4
(g5
g6
(dp638
S'CA_COMMENT'
p639
NsS'CO_COMP_NAME'
p640
g635
sS'SYSTIME'
p641
g4
(g11
g12
(lp642
g14
(S'\x07\xde\x05\x01\x00\x00\x00\x00\x00\x00'
p643
tp644
Rp645
aNatp646
Rp647
(dp648
g21
S'[)'
p649
sbsS'CA_CALIBRATION_SCALE'
p650
g636
sS'CA_DESC'
p651
Nstp652
Rp653
s(Vpropanone
p654
VApel-Riemer
p655
tp656
g4
(g5
g6
(dp657
S'CA_COMMENT'
p658
NsS'CO_COMP_NAME'
p659
g654
sS'SYSTIME'
p660
g4
(g11
g12
(lp661
g14
(S'\x07\xe7\x02\x0f\x0e \x0b\rx\x9c'
p662
tp663
Rp664
aNatp665
Rp666
(dp667
g21
S'[)'
p668
sbsS'CA_CALIBRATION_SCALE'
p669
g655
sS'CA_DESC'
p670
Nstp671
Rp672
s(Vmethyl-cyclohexane
p673
VNPL
p674
tp675
g4
(g5
g6
(dp676
S'CA_COMMENT'
p677
NsS'CO_COMP_NAME'
p678
g673
sS'SYSTIME'
p679
g4
(g11
g12
(lp680
g14
(S'\x07\xde\x05\x01\x00\x00\x00\x00\x00\x00'
p681
tp682
Rp683
aNatp684
Rp685
(dp686
g21
S'[)'
p687
sbsS'CA_CALIBRATION_SCALE'
p688
g674
sS'CA_DESC'
p689
Nstp690
Rp691
s(Vhexanal
p692
VApel Riemer
p693
tp694
g4
(g5
g6
(dp695
S'CA_COMMENT'
p696
NsS'CO_COMP_NAME'
p697
g692
sS'SYSTIME'
p698
g4
(g11
g12
(lp699
g14
(S'\x07\xe7\x02\x0f\x0e!7\x03n\xa5'
p700
tp701
Rp702
aNatp703
Rp704
(dp705
g21
S'[)'
p706
sbsS'CA_CALIBRATION_SCALE'
p707
g693
sS'CA_DESC'
p708
Nstp709
Rp710
s(Vmethane
p711
VWMO CH4 X2004
p712
tp713
g4
(g5
g6
(dp714
S'CA_COMMENT'
p715
NsS'CO_COMP_NAME'
p716
g711
sS'SYSTIME'
p717
g4
(g11
g12
(lp718
g14
(S'\x07\xde\x05\x01\x00\x00\x00\x00\x00\x00'
p719
tp720
Rp721
aNatp722
Rp723
(dp724
g21
S'[)'
p725
sbsS'CA_CALIBRATION_SCALE'
p726
g712
sS'CA_DESC'
p727
Nstp728
Rp729
s(V2-methylpropane
p730
VNPL
p731
tp732
g4
(g5
g6
(dp733
S'CA_COMMENT'
p734
NsS'CO_COMP_NAME'
p735
g730
sS'SYSTIME'
p736
g4
(g11
g12
(lp737
g14
(S'\x07\xde\x05\x01\x00\x00\x00\x00\x00\x00'
p738
tp739
Rp740
aNatp741
Rp742
(dp743
g21
S'[)'
p744
sbsS'CA_CALIBRATION_SCALE'
p745
g731
sS'CA_DESC'
p746
Nstp747
Rp748
s(Vsabinene
p749
VApel Riemer
p750
tp751
g4
(g5
g6
(dp752
S'CA_COMMENT'
p753
NsS'CO_COMP_NAME'
p754
g749
sS'SYSTIME'
p755
g4
(g11
g12
(lp756
g14
(S'\x07\xe7\x02\x0f\x0e!7\x04\xb6\xd5'
p757
tp758
Rp759
aNatp760
Rp761
(dp762
g21
S'[)'
p763
sbsS'CA_CALIBRATION_SCALE'
p764
g750
sS'CA_DESC'
p765
Nstp766
Rp767
s(VCFC-13
p768
VSIO2005
p769
tp770
g4
(g5
g6
(dp771
S'CA_COMMENT'
p772
V
p773
sS'CO_COMP_NAME'
p774
g768
sS'SYSTIME'
p775
g4
(g11
g12
(lp776
g14
(S'\x07\xe8\x04\x0f\x08%7\x0bI\x88'
p777
tp778
Rp779
aNatp780
Rp781
(dp782
g21
S'[)'
p783
sbsS'CA_CALIBRATION_SCALE'
p784
g769
sS'CA_DESC'
p785
Nstp786
Rp787
s(VCFC-113
p788
VSIO2005
p789
tp790
g4
(g5
g6
(dp791
S'CA_COMMENT'
p792
NsS'CO_COMP_NAME'
p793
g788
sS'SYSTIME'
p794
g4
(g11
g12
(lp795
g14
(S'\x07\xde\x05\x01\x00\x00\x00\x00\x00\x00'
p796
tp797
Rp798
aNatp799
Rp800
(dp801
g21
S'[)'
p802
sbsS'CA_CALIBRATION_SCALE'
p803
g789
sS'CA_DESC'
p804
Nstp805
Rp806
s(Vn-propanol
p807
VNPL
p808
tp809
g4
(g5
g6
(dp810
S'CA_COMMENT'
p811
NsS'CO_COMP_NAME'
p812
g807
sS'SYSTIME'
p813
g4
(g11
g12
(lp814
g14
(S'\x07\xde\x05\x01\x00\x00\x00\x00\x00\x00'
p815
tp816
Rp817
aNatp818
Rp819
(dp820
g21
S'[)'
p821
sbsS'CA_CALIBRATION_SCALE'
p822
g808
sS'CA_DESC'
p823
Nstp824
Rp825
s(Vpentanal
p826
VApel Riemer
p827
tp828
g4
(g5
g6
(dp829
S'CA_COMMENT'
p830
NsS'CO_COMP_NAME'
p831
g826
sS'SYSTIME'
p832
g4
(g11
g12
(lp833
g14
(S'\x07\xe7\x02\x0f\x0e!7\x02\xc2\x0f'
p834
tp835
Rp836
aNatp837
Rp838
(dp839
g21
S'[)'
p840
sbsS'CA_CALIBRATION_SCALE'
p841
g827
sS'CA_DESC'
p842
Nstp843
Rp844
s(Vethanol
p845
VApel Riemer
p846
tp847
g4
(g5
g6
(dp848
S'CA_COMMENT'
p849
NsS'CO_COMP_NAME'
p850
g845
sS'SYSTIME'
p851
g4
(g11
g12
(lp852
g14
(S'\x07\xe7\x02\x0f\x0e!6\x0f%\xcc'
p853
tp854
Rp855
aNatp856
Rp857
(dp858
g21
S'[)'
p859
sbsS'CA_CALIBRATION_SCALE'
p860
g846
sS'CA_DESC'
p861
Nstp862
Rp863
s(Vpentanal
p864
VNPL
p865
tp866
g4
(g5
g6
(dp867
S'CA_COMMENT'
p868
NsS'CO_COMP_NAME'
p869
g864
sS'SYSTIME'
p870
g4
(g11
g12
(lp871
g14
(S'\x07\xde\x05\x01\x00\x00\x00\x00\x00\x00'
p872
tp873
Rp874
aNatp875
Rp876
(dp877
g21
S'[)'
p878
sbsS'CA_CALIBRATION_SCALE'
p879
g865
sS'CA_DESC'
p880
Nstp881
Rp882
s(Vsabinene
p883
VApel-Riemer
p884
tp885
g4
(g5
g6
(dp886
S'CA_COMMENT'
p887
NsS'CO_COMP_NAME'
p888
g883
sS'SYSTIME'
p889
g4
(g11
g12
(lp890
g14
(S'\x07\xe7\x02\x0f\x0e \x0c\x06\xb5\xd0'
p891
tp892
Rp893
aNatp894
Rp895
(dp896
g21
S'[)'
p897
sbsS'CA_CALIBRATION_SCALE'
p898
g884
sS'CA_DESC'
p899
Nstp900
Rp901
s(Vo-xylene
p902
VNPL
p903
tp904
g4
(g5
g6
(dp905
S'CA_COMMENT'
p906
NsS'CO_COMP_NAME'
p907
g902
sS'SYSTIME'
p908
g4
(g11
g12
(lp909
g14
(S'\x07\xde\x05\x01\x00\x00\x00\x00\x00\x00'
p910
tp911
Rp912
aNatp913
Rp914
(dp915
g21
S'[)'
p916
sbsS'CA_CALIBRATION_SCALE'
p917
g903
sS'CA_DESC'
p918
Nstp919
Rp920
s(Vmass_57.070_organic_compounds
p921
VNPL
p922
tp923
g4
(g5
g6
(dp924
S'CA_COMMENT'
p925
NsS'CO_COMP_NAME'
p926
g921
sS'SYSTIME'
p927
g4
(g11
g12
(lp928
g14
(S'\x07\xe9\x01\x1f\x07\x05\x1a\x0ci\x07'
p929
tp930
Rp931
aNatp932
Rp933
(dp934
g21
S'[)'
p935
sbsS'CA_CALIBRATION_SCALE'
p936
g922
sS'CA_DESC'
p937
Nstp938
Rp939
s(Valpha-phellandrene
p940
VNPL
p941
tp942
g4
(g5
g6
(dp943
S'CA_COMMENT'
p944
NsS'CO_COMP_NAME'
p945
g940
sS'SYSTIME'
p946
g4
(g11
g12
(lp947
g14
(S'\x07\xde\x05\x01\x00\x00\x00\x00\x00\x00'
p948
tp949
Rp950
aNatp951
Rp952
(dp953
g21
S'[)'
p954
sbsS'CA_CALIBRATION_SCALE'
p955
g941
sS'CA_DESC'
p956
Nstp957
Rp958
s(V2-2-dimethylpentane
p959
VNPL
p960
tp961
g4
(g5
g6
(dp962
S'CA_COMMENT'
p963
NsS'CO_COMP_NAME'
p964
g959
sS'SYSTIME'
p965
g4
(g11
g12
(lp966
g14
(S'\x07\xde\x05\x01\x00\x00\x00\x00\x00\x00'
p967
tp968
Rp969
aNatp970
Rp971
(dp972
g21
S'[)'
p973
sbsS'CA_CALIBRATION_SCALE'
p974
g960
sS'CA_DESC'
p975
Nstp976
Rp977
s(Vtoluene
p978
VSIO2005
p979
tp980
g4
(g5
g6
(dp981
S'CA_COMMENT'
p982
NsS'CO_COMP_NAME'
p983
g978
sS'SYSTIME'
p984
g4
(g11
g12
(lp985
g14
(S'\x07\xde\x05\x01\x00\x00\x00\x00\x00\x00'
p986
tp987
Rp988
aNatp989
Rp990
(dp991
g21
S'[)'
p992
sbsS'CA_CALIBRATION_SCALE'
p993
g979
sS'CA_DESC'
p994
Nstp995
Rp996
s(Vmass_61.065_organic_compounds
p997
VNPL
p998
tp999
g4
(g5
g6
(dp1000
S'CA_COMMENT'
p1001
NsS'CO_COMP_NAME'
p1002
g997
sS'SYSTIME'
p1003
g4
(g11
g12
(lp1004
g14
(S'\x07\xe9\x01\x1f\x07\x05\x1a\x0ci\x07'
p1005
tp1006
Rp1007
aNatp1008
Rp1009
(dp1010
g21
S'[)'
p1011
sbsS'CA_CALIBRATION_SCALE'
p1012
g998
sS'CA_DESC'
p1013
Nstp1014
Rp1015
s(Vpropyne
p1016
VApel-Riemer
p1017
tp1018
g4
(g5
g6
(dp1019
S'CA_COMMENT'
p1020
NsS'CO_COMP_NAME'
p1021
g1016
sS'SYSTIME'
p1022
g4
(g11
g12
(lp1023
g14
(S'\x07\xe7\x02\x0f\x0e \x0b\x0cP\xfc'
p1024
tp1025
Rp1026
aNatp1027
Rp1028
(dp1029
g21
S'[)'
p1030
sbsS'CA_CALIBRATION_SCALE'
p1031
g1017
sS'CA_DESC'
p1032
Nstp1033
Rp1034
s(Vbutylacetat
p1035
VNPL
p1036
tp1037
g4
(g5
g6
(dp1038
S'CA_COMMENT'
p1039
NsS'CO_COMP_NAME'
p1040
g1035
sS'SYSTIME'
p1041
g4
(g11
g12
(lp1042
g14
(S'\x07\xde\x05\x01\x00\x00\x00\x00\x00\x00'
p1043
tp1044
Rp1045
aNatp1046
Rp1047
(dp1048
g21
S'[)'
p1049
sbsS'CA_CALIBRATION_SCALE'
p1050
g1036
sS'CA_DESC'
p1051
Nstp1052
Rp1053
s(Vnitrogen_monoxide
p1054
VNPL
p1055
tp1056
g4
(g5
g6
(dp1057
S'CA_COMMENT'
p1058
NsS'CO_COMP_NAME'
p1059
g1054
sS'SYSTIME'
p1060
g4
(g11
g12
(lp1061
g14
(S'\x07\xde\x05\x01\x00\x00\x00\x00\x00\x00'
p1062
tp1063
Rp1064
aNatp1065
Rp1066
(dp1067
g21
S'[)'
p1068
sbsS'CA_CALIBRATION_SCALE'
p1069
g1055
sS'CA_DESC'
p1070
Nstp1071
Rp1072
s(V3-methylpentane
p1073
VApel-Riemer
p1074
tp1075
g4
(g5
g6
(dp1076
S'CA_COMMENT'
p1077
NsS'CO_COMP_NAME'
p1078
g1073
sS'SYSTIME'
p1079
g4
(g11
g12
(lp1080
g14
(S'\x07\xe7\x02\x0f\x0e \x0c\x01\x1b}'
p1081
tp1082
Rp1083
aNatp1084
Rp1085
(dp1086
g21
S'[)'
p1087
sbsS'CA_CALIBRATION_SCALE'
p1088
g1074
sS'CA_DESC'
p1089
Nstp1090
Rp1091
s(Vethene
p1092
VNPL
p1093
tp1094
g4
(g5
g6
(dp1095
S'CA_COMMENT'
p1096
NsS'CO_COMP_NAME'
p1097
g1092
sS'SYSTIME'
p1098
g4
(g11
g12
(lp1099
g14
(S'\x07\xde\x05\x01\x00\x00\x00\x00\x00\x00'
p1100
tp1101
Rp1102
aNatp1103
Rp1104
(dp1105
g21
S'[)'
p1106
sbsS'CA_CALIBRATION_SCALE'
p1107
g1093
sS'CA_DESC'
p1108
Nstp1109
Rp1110
s(Veucalyptol
p1111
VNPL
p1112
tp1113
g4
(g5
g6
(dp1114
S'CA_COMMENT'
p1115
NsS'CO_COMP_NAME'
p1116
g1111
sS'SYSTIME'
p1117
g4
(g11
g12
(lp1118
g14
(S'\x07\xde\x05\x01\x00\x00\x00\x00\x00\x00'
p1119
tp1120
Rp1121
aNatp1122
Rp1123
(dp1124
g21
S'[)'
p1125
sbsS'CA_CALIBRATION_SCALE'
p1126
g1112
sS'CA_DESC'
p1127
Nstp1128
Rp1129
s(Vlinalool
p1130
VNPL
p1131
tp1132
g4
(g5
g6
(dp1133
S'CA_COMMENT'
p1134
NsS'CO_COMP_NAME'
p1135
g1130
sS'SYSTIME'
p1136
g4
(g11
g12
(lp1137
g14
(S'\x07\xe7\x01\t\x0f\x1f \x066\x04'
p1138
tp1139
Rp1140
aNatp1141
Rp1142
(dp1143
g21
S'[)'
p1144
sbsS'CA_CALIBRATION_SCALE'
p1145
g1131
sS'CA_DESC'
p1146
Nstp1147
Rp1148
s(V2-methylpropenal
p1149
VNPL
p1150
tp1151
g4
(g5
g6
(dp1152
S'CA_COMMENT'
p1153
NsS'CO_COMP_NAME'
p1154
g1149
sS'SYSTIME'
p1155
g4
(g11
g12
(lp1156
g14
(S'\x07\xe7\x03\x08\x0c%&\x06\xc8W'
p1157
tp1158
Rp1159
aNatp1160
Rp1161
(dp1162
g21
S'[)'
p1163
sbsS'CA_CALIBRATION_SCALE'
p1164
g1150
sS'CA_DESC'
p1165
Nstp1166
Rp1167
s(Vm-p-xylene
p1168
VApel Riemer
p1169
tp1170
g4
(g5
g6
(dp1171
S'CA_COMMENT'
p1172
NsS'CO_COMP_NAME'
p1173
g1168
sS'SYSTIME'
p1174
g4
(g11
g12
(lp1175
g14
(S'\x07\xe7\x02\x0f\x0e!7\x03\xc6\x0e'
p1176
tp1177
Rp1178
aNatp1179
Rp1180
(dp1181
g21
S'[)'
p1182
sbsS'CA_CALIBRATION_SCALE'
p1183
g1169
sS'CA_DESC'
p1184
Nstp1185
Rp1186
s(Vn-butanol
p1187
VNPL
p1188
tp1189
g4
(g5
g6
(dp1190
S'CA_COMMENT'
p1191
NsS'CO_COMP_NAME'
p1192
g1187
sS'SYSTIME'
p1193
g4
(g11
g12
(lp1194
g14
(S'\x07\xde\x05\x01\x00\x00\x00\x00\x00\x00'
p1195
tp1196
Rp1197
aNatp1198
Rp1199
(dp1200
g21
S'[)'
p1201
sbsS'CA_CALIBRATION_SCALE'
p1202
g1188
sS'CA_DESC'
p1203
Nstp1204
Rp1205
s(Valpha-pinene
p1206
VApel-Riemer
p1207
tp1208
g4
(g5
g6
(dp1209
S'CA_COMMENT'
p1210
NsS'CO_COMP_NAME'
p1211
g1206
sS'SYSTIME'
p1212
g4
(g11
g12
(lp1213
g14
(S'\x07\xe7\x02\x0f\x0e \x0c\x06\x05\x88'
p1214
tp1215
Rp1216
aNatp1217
Rp1218
(dp1219
g21
S'[)'
p1220
sbsS'CA_CALIBRATION_SCALE'
p1221
g1207
sS'CA_DESC'
p1222
Nstp1223
Rp1224
s(Visoprene
p1225
VApel-Riemer
p1226
tp1227
g4
(g5
g6
(dp1228
S'CA_COMMENT'
p1229
NsS'CO_COMP_NAME'
p1230
g1225
sS'SYSTIME'
p1231
g4
(g11
g12
(lp1232
g14
(S'\x07\xe7\x02\x0f\x0e \x0b\x0e+{'
p1233
tp1234
Rp1235
aNatp1236
Rp1237
(dp1238
g21
S'[)'
p1239
sbsS'CA_CALIBRATION_SCALE'
p1240
g1226
sS'CA_DESC'
p1241
Nstp1242
Rp1243
s(VPFC-14
p1244
VSIO2005
p1245
tp1246
g4
(g5
g6
(dp1247
S'CA_COMMENT'
p1248
NsS'CO_COMP_NAME'
p1249
g1244
sS'SYSTIME'
p1250
g4
(g11
g12
(lp1251
g14
(S'\x07\xde\x05\x01\x00\x00\x00\x00\x00\x00'
p1252
tp1253
Rp1254
aNatp1255
Rp1256
(dp1257
g21
S'[)'
p1258
sbsS'CA_CALIBRATION_SCALE'
p1259
g1245
sS'CA_DESC'
p1260
Nstp1261
Rp1262
s(Vpropene
p1263
VApel Riemer
p1264
tp1265
g4
(g5
g6
(dp1266
S'CA_COMMENT'
p1267
NsS'CO_COMP_NAME'
p1268
g1263
sS'SYSTIME'
p1269
g4
(g11
g12
(lp1270
g14
(S'\x07\xe7\x02\x0f\x0e!6\x0en6'
p1271
tp1272
Rp1273
aNatp1274
Rp1275
(dp1276
g21
S'[)'
p1277
sbsS'CA_CALIBRATION_SCALE'
p1278
g1264
sS'CA_DESC'
p1279
Nstp1280
Rp1281
s(Vpropane
p1282
VEmpa-2015-p
p1283
tp1284
g4
(g5
g6
(dp1285
S'CA_COMMENT'
p1286
NsS'CO_COMP_NAME'
p1287
g1282
sS'SYSTIME'
p1288
g4
(g11
g12
(lp1289
g14
(S'\x07\xde\x05\x01\x00\x00\x00\x00\x00\x00'
p1290
tp1291
Rp1292
aNatp1293
Rp1294
(dp1295
g21
S'[)'
p1296
sbsS'CA_CALIBRATION_SCALE'
p1297
g1283
sS'CA_DESC'
p1298
Nstp1299
Rp1300
s(Vn-propanol
p1301
VApel Riemer
p1302
tp1303
g4
(g5
g6
(dp1304
S'CA_COMMENT'
p1305
NsS'CO_COMP_NAME'
p1306
g1301
sS'SYSTIME'
p1307
g4
(g11
g12
(lp1308
g14
(S'\x07\xe7\x02\x0f\x0e!7\x00\xe7!'
p1309
tp1310
Rp1311
aNatp1312
Rp1313
(dp1314
g21
S'[)'
p1315
sbsS'CA_CALIBRATION_SCALE'
p1316
g1302
sS'CA_DESC'
p1317
Nstp1318
Rp1319
s(Vmethyl-butanol
p1320
VNPL
p1321
tp1322
g4
(g5
g6
(dp1323
S'CA_COMMENT'
p1324
NsS'CO_COMP_NAME'
p1325
g1320
sS'SYSTIME'
p1326
g4
(g11
g12
(lp1327
g14
(S'\x07\xde\x05\x01\x00\x00\x00\x00\x00\x00'
p1328
tp1329
Rp1330
aNatp1331
Rp1332
(dp1333
g21
S'[)'
p1334
sbsS'CA_CALIBRATION_SCALE'
p1335
g1321
sS'CA_DESC'
p1336
Nstp1337
Rp1338
s(Vcyclo-hexane
p1339
VApel-Riemer
p1340
tp1341
g4
(g5
g6
(dp1342
S'CA_COMMENT'
p1343
NsS'CO_COMP_NAME'
p1344
g1339
sS'SYSTIME'
p1345
g4
(g11
g12
(lp1346
g14
(S'\x07\xe7\x02\x0f\x0e \x0c\x01\xfe\x93'
p1347
tp1348
Rp1349
aNatp1350
Rp1351
(dp1352
g21
S'[)'
p1353
sbsS'CA_CALIBRATION_SCALE'
p1354
g1340
sS'CA_DESC'
p1355
Nstp1356
Rp1357
s(Vtrans-2-pentene
p1358
VNPL
p1359
tp1360
g4
(g5
g6
(dp1361
S'CA_COMMENT'
p1362
NsS'CO_COMP_NAME'
p1363
g1358
sS'SYSTIME'
p1364
g4
(g11
g12
(lp1365
g14
(S'\x07\xde\x05\x01\x00\x00\x00\x00\x00\x00'
p1366
tp1367
Rp1368
aNatp1369
Rp1370
(dp1371
g21
S'[)'
p1372
sbsS'CA_CALIBRATION_SCALE'
p1373
g1359
sS'CA_DESC'
p1374
Nstp1375
Rp1376
s(Vn-octane
p1377
VApel-Riemer
p1378
tp1379
g4
(g5
g6
(dp1380
S'CA_COMMENT'
p1381
NsS'CO_COMP_NAME'
p1382
g1377
sS'SYSTIME'
p1383
g4
(g11
g12
(lp1384
g14
(S'\x07\xe7\x02\x0f\x0e \x0c\x04o\x86'
p1385
tp1386
Rp1387
aNatp1388
Rp1389
(dp1390
g21
S'[)'
p1391
sbsS'CA_CALIBRATION_SCALE'
p1392
g1378
sS'CA_DESC'
p1393
Nstp1394
Rp1395
s(Vmass_73_organic_compounds
p1396
VNPL
p1397
tp1398
g4
(g5
g6
(dp1399
S'CA_COMMENT'
p1400
NsS'CO_COMP_NAME'
p1401
g1396
sS'SYSTIME'
p1402
g4
(g11
g12
(lp1403
g14
(S'\x07\xe7\x05\t\x070)\x05?5'
p1404
tp1405
Rp1406
aNatp1407
Rp1408
(dp1409
g21
S'[)'
p1410
sbsS'CA_CALIBRATION_SCALE'
p1411
g1397
sS'CA_DESC'
p1412
Nstp1413
Rp1414
s(Vpropyne
p1415
VApel Riemer
p1416
tp1417
g4
(g5
g6
(dp1418
S'CA_COMMENT'
p1419
NsS'CO_COMP_NAME'
p1420
g1415
sS'SYSTIME'
p1421
g4
(g11
g12
(lp1422
g14
(S'\x07\xe7\x02\x0f\x0e!6\x0e\xc1\x1a'
p1423
tp1424
Rp1425
aNatp1426
Rp1427
(dp1428
g21
S'[)'
p1429
sbsS'CA_CALIBRATION_SCALE'
p1430
g1416
sS'CA_DESC'
p1431
Nstp1432
Rp1433
s(Valpha-thujene
p1434
VNPL
p1435
tp1436
g4
(g5
g6
(dp1437
S'CA_COMMENT'
p1438
NsS'CO_COMP_NAME'
p1439
g1434
sS'SYSTIME'
p1440
g4
(g11
g12
(lp1441
g14
(S'\x07\xde\x05\x01\x00\x00\x00\x00\x00\x00'
p1442
tp1443
Rp1444
aNatp1445
Rp1446
(dp1447
g21
S'[)'
p1448
sbsS'CA_CALIBRATION_SCALE'
p1449
g1435
sS'CA_DESC'
p1450
Nstp1451
Rp1452
s(Vm-xylene
p1453
VNPL
p1454
tp1455
g4
(g5
g6
(dp1456
S'CA_COMMENT'
p1457
NsS'CO_COMP_NAME'
p1458
g1453
sS'SYSTIME'
p1459
g4
(g11
g12
(lp1460
g14
(S'\x07\xe7\x08\x1c\x0c\t\x01\x0b\xd01'
p1461
tp1462
Rp1463
aNatp1464
Rp1465
(dp1466
g21
S'[)'
p1467
sbsS'CA_CALIBRATION_SCALE'
p1468
g1454
sS'CA_DESC'
p1469
Nstp1470
Rp1471
s(Valpha-phellandrene
p1472
VApel-Riemer
p1473
tp1474
g4
(g5
g6
(dp1475
S'CA_COMMENT'
p1476
NsS'CO_COMP_NAME'
p1477
g1472
sS'SYSTIME'
p1478
g4
(g11
g12
(lp1479
g14
(S'\x07\xe7\x02\x0f\x0e \x0c\x07\x91Q'
p1480
tp1481
Rp1482
aNatp1483
Rp1484
(dp1485
g21
S'[)'
p1486
sbsS'CA_CALIBRATION_SCALE'
p1487
g1473
sS'CA_DESC'
p1488
Nstp1489
Rp1490
s(V2-methylbenzaldehyde
p1491
VNPL
p1492
tp1493
g4
(g5
g6
(dp1494
S'CA_COMMENT'
p1495
NsS'CO_COMP_NAME'
p1496
g1491
sS'SYSTIME'
p1497
g4
(g11
g12
(lp1498
g14
(S'\x07\xde\x05\x01\x00\x00\x00\x00\x00\x00'
p1499
tp1500
Rp1501
aNatp1502
Rp1503
(dp1504
g21
S'[)'
p1505
sbsS'CA_CALIBRATION_SCALE'
p1506
g1492
sS'CA_DESC'
p1507
Nstp1508
Rp1509
s(Vpropyne
p1510
VNPL
p1511
tp1512
g4
(g5
g6
(dp1513
S'CA_COMMENT'
p1514
NsS'CO_COMP_NAME'
p1515
g1510
sS'SYSTIME'
p1516
g4
(g11
g12
(lp1517
g14
(S'\x07\xde\x05\x01\x00\x00\x00\x00\x00\x00'
p1518
tp1519
Rp1520
aNatp1521
Rp1522
(dp1523
g21
S'[)'
p1524
sbsS'CA_CALIBRATION_SCALE'
p1525
g1511
sS'CA_DESC'
p1526
Nstp1527
Rp1528
s(V2-methyl-1-butene
p1529
VNPL
p1530
tp1531
g4
(g5
g6
(dp1532
S'CA_COMMENT'
p1533
NsS'CO_COMP_NAME'
p1534
g1529
sS'SYSTIME'
p1535
g4
(g11
g12
(lp1536
g14
(S'\x07\xde\x05\x01\x00\x00\x00\x00\x00\x00'
p1537
tp1538
Rp1539
aNatp1540
Rp1541
(dp1542
g21
S'[)'
p1543
sbsS'CA_CALIBRATION_SCALE'
p1544
g1530
sS'CA_DESC'
p1545
Nstp1546
Rp1547
s(Vn-decanal
p1548
VNPL
p1549
tp1550
g4
(g5
g6
(dp1551
S'CA_COMMENT'
p1552
NsS'CO_COMP_NAME'
p1553
g1548
sS'SYSTIME'
p1554
g4
(g11
g12
(lp1555
g14
(S'\x07\xde\x05\x01\x00\x00\x00\x00\x00\x00'
p1556
tp1557
Rp1558
aNatp1559
Rp1560
(dp1561
g21
S'[)'
p1562
sbsS'CA_CALIBRATION_SCALE'
p1563
g1549
sS'CA_DESC'
p1564
Nstp1565
Rp1566
s(VHCFC-142b
p1567
VSIO2005
p1568
tp1569
g4
(g5
g6
(dp1570
S'CA_COMMENT'
p1571
NsS'CO_COMP_NAME'
p1572
g1567
sS'SYSTIME'
p1573
g4
(g11
g12
(lp1574
g14
(S'\x07\xde\x05\x01\x00\x00\x00\x00\x00\x00'
p1575
tp1576
Rp1577
aNatp1578
Rp1579
(dp1580
g21
S'[)'
p1581
sbsS'CA_CALIBRATION_SCALE'
p1582
g1568
sS'CA_DESC'
p1583
Nstp1584
Rp1585
s(V2-methylpentane
p1586
VApel-Riemer
p1587
tp1588
g4
(g5
g6
(dp1589
S'CA_COMMENT'
p1590
NsS'CO_COMP_NAME'
p1591
g1586
sS'SYSTIME'
p1592
g4
(g11
g12
(lp1593
g14
(S'\x07\xe7\x02\x0f\x0e \x0c\x00Au'
p1594
tp1595
Rp1596
aNatp1597
Rp1598
(dp1599
g21
S'[)'
p1600
sbsS'CA_CALIBRATION_SCALE'
p1601
g1587
sS'CA_DESC'
p1602
Nstp1603
Rp1604
s(Vn-butane
p1605
VApel-Riemer
p1606
tp1607
g4
(g5
g6
(dp1608
S'CA_COMMENT'
p1609
NsS'CO_COMP_NAME'
p1610
g1605
sS'SYSTIME'
p1611
g4
(g11
g12
(lp1612
g14
(S'\x07\xe7\x02\x0f\x0e \x0b\x0c\xc7\xc7'
p1613
tp1614
Rp1615
aNatp1616
Rp1617
(dp1618
g21
S'[)'
p1619
sbsS'CA_CALIBRATION_SCALE'
p1620
g1606
sS'CA_DESC'
p1621
Nstp1622
Rp1623
s(V3-methylheptane
p1624
VNPL
p1625
tp1626
g4
(g5
g6
(dp1627
S'CA_COMMENT'
p1628
NsS'CO_COMP_NAME'
p1629
g1624
sS'SYSTIME'
p1630
g4
(g11
g12
(lp1631
g14
(S'\x07\xde\x05\x01\x00\x00\x00\x00\x00\x00'
p1632
tp1633
Rp1634
aNatp1635
Rp1636
(dp1637
g21
S'[)'
p1638
sbsS'CA_CALIBRATION_SCALE'
p1639
g1625
sS'CA_DESC'
p1640
Nstp1641
Rp1642
s(Vpropene
p1643
VNPL
p1644
tp1645
g4
(g5
g6
(dp1646
S'CA_COMMENT'
p1647
NsS'CO_COMP_NAME'
p1648
g1643
sS'SYSTIME'
p1649
g4
(g11
g12
(lp1650
g14
(S'\x07\xde\x05\x01\x00\x00\x00\x00\x00\x00'
p1651
tp1652
Rp1653
aNatp1654
Rp1655
(dp1656
g21
S'[)'
p1657
sbsS'CA_CALIBRATION_SCALE'
p1658
g1644
sS'CA_DESC'
p1659
Nstp1660
Rp1661
s(Vmyrcene
p1662
VApel Riemer
p1663
tp1664
g4
(g5
g6
(dp1665
S'CA_COMMENT'
p1666
NsS'CO_COMP_NAME'
p1667
g1662
sS'SYSTIME'
p1668
g4
(g11
g12
(lp1669
g14
(S'\x07\xe7\x02\x0f\x0e!7\x04\xf5]'
p1670
tp1671
Rp1672
aNatp1673
Rp1674
(dp1675
g21
S'[)'
p1676
sbsS'CA_CALIBRATION_SCALE'
p1677
g1663
sS'CA_DESC'
p1678
Nstp1679
Rp1680
s(V2-methylpentane
p1681
VNPL
p1682
tp1683
g4
(g5
g6
(dp1684
S'CA_COMMENT'
p1685
NsS'CO_COMP_NAME'
p1686
g1681
sS'SYSTIME'
p1687
g4
(g11
g12
(lp1688
g14
(S'\x07\xde\x05\x01\x00\x00\x00\x00\x00\x00'
p1689
tp1690
Rp1691
aNatp1692
Rp1693
(dp1694
g21
S'[)'
p1695
sbsS'CA_CALIBRATION_SCALE'
p1696
g1682
sS'CA_DESC'
p1697
Nstp1698
Rp1699
s(Vtoluene
p1700
VNPL
p1701
tp1702
g4
(g5
g6
(dp1703
S'CA_COMMENT'
p1704
NsS'CO_COMP_NAME'
p1705
g1700
sS'SYSTIME'
p1706
g4
(g11
g12
(lp1707
g14
(S'\x07\xde\x05\x01\x00\x00\x00\x00\x00\x00'
p1708
tp1709
Rp1710
aNatp1711
Rp1712
(dp1713
g21
S'[)'
p1714
sbsS'CA_CALIBRATION_SCALE'
p1715
g1701
sS'CA_DESC'
p1716
Nstp1717
Rp1718
s(V2-methylhexane
p1719
VNPL
p1720
tp1721
g4
(g5
g6
(dp1722
S'CA_COMMENT'
p1723
NsS'CO_COMP_NAME'
p1724
g1719
sS'SYSTIME'
p1725
g4
(g11
g12
(lp1726
g14
(S'\x07\xde\x05\x01\x00\x00\x00\x00\x00\x00'
p1727
tp1728
Rp1729
aNatp1730
Rp1731
(dp1732
g21
S'[)'
p1733
sbsS'CA_CALIBRATION_SCALE'
p1734
g1720
sS'CA_DESC'
p1735
Nstp1736
Rp1737
s(VHCFC-22
p1738
VSIO2005
p1739
tp1740
g4
(g5
g6
(dp1741
S'CA_COMMENT'
p1742
NsS'CO_COMP_NAME'
p1743
g1738
sS'SYSTIME'
p1744
g4
(g11
g12
(lp1745
g14
(S'\x07\xde\x05\x01\x00\x00\x00\x00\x00\x00'
p1746
tp1747
Rp1748
aNatp1749
Rp1750
(dp1751
g21
S'[)'
p1752
sbsS'CA_CALIBRATION_SCALE'
p1753
g1739
sS'CA_DESC'
p1754
Nstp1755
Rp1756
s(Vmass_73.065_organic_compounds
p1757
VNPL
p1758
tp1759
g4
(g5
g6
(dp1760
S'CA_COMMENT'
p1761
NsS'CO_COMP_NAME'
p1762
g1757
sS'SYSTIME'
p1763
g4
(g11
g12
(lp1764
g14
(S'\x07\xe9\x01\x1f\x07\x05\x1a\x0ci\x07'
p1765
tp1766
Rp1767
aNatp1768
Rp1769
(dp1770
g21
S'[)'
p1771
sbsS'CA_CALIBRATION_SCALE'
p1772
g1758
sS'CA_DESC'
p1773
Nstp1774
Rp1775
s(V3-methyl-1-butene
p1776
VNPL
p1777
tp1778
g4
(g5
g6
(dp1779
S'CA_COMMENT'
p1780
NsS'CO_COMP_NAME'
p1781
g1776
sS'SYSTIME'
p1782
g4
(g11
g12
(lp1783
g14
(S'\x07\xde\x05\x01\x00\x00\x00\x00\x00\x00'
p1784
tp1785
Rp1786
aNatp1787
Rp1788
(dp1789
g21
S'[)'
p1790
sbsS'CA_CALIBRATION_SCALE'
p1791
g1777
sS'CA_DESC'
p1792
Nstp1793
Rp1794
s(Visoprene
p1795
VNPL
p1796
tp1797
g4
(g5
g6
(dp1798
S'CA_COMMENT'
p1799
NsS'CO_COMP_NAME'
p1800
g1795
sS'SYSTIME'
p1801
g4
(g11
g12
(lp1802
g14
(S'\x07\xde\x05\x01\x00\x00\x00\x00\x00\x00'
p1803
tp1804
Rp1805
aNatp1806
Rp1807
(dp1808
g21
S'[)'
p1809
sbsS'CA_CALIBRATION_SCALE'
p1810
g1796
sS'CA_DESC'
p1811
Nstp1812
Rp1813
s(VHFC-125
p1814
VSIO2014
p1815
tp1816
g4
(g5
g6
(dp1817
S'CA_COMMENT'
p1818
NsS'CO_COMP_NAME'
p1819
g1814
sS'SYSTIME'
p1820
g4
(g11
g12
(lp1821
g14
(S'\x07\xde\x05\x01\x00\x00\x00\x00\x00\x00'
p1822
tp1823
Rp1824
aNatp1825
Rp1826
(dp1827
g21
S'[)'
p1828
sbsS'CA_CALIBRATION_SCALE'
p1829
g1815
sS'CA_DESC'
p1830
Nstp1831
Rp1832
s(V2-methylbutane
p1833
VNPL
p1834
tp1835
g4
(g5
g6
(dp1836
S'CA_COMMENT'
p1837
NsS'CO_COMP_NAME'
p1838
g1833
sS'SYSTIME'
p1839
g4
(g11
g12
(lp1840
g14
(S'\x07\xde\x05\x01\x00\x00\x00\x00\x00\x00'
p1841
tp1842
Rp1843
aNatp1844
Rp1845
(dp1846
g21
S'[)'
p1847
sbsS'CA_CALIBRATION_SCALE'
p1848
g1834
sS'CA_DESC'
p1849
Nstp1850
Rp1851
s(Vmethanal
p1852
VNPL
p1853
tp1854
g4
(g5
g6
(dp1855
S'CA_COMMENT'
p1856
NsS'CO_COMP_NAME'
p1857
g1852
sS'SYSTIME'
p1858
g4
(g11
g12
(lp1859
g14
(S'\x07\xde\x05\x01\x00\x00\x00\x00\x00\x00'
p1860
tp1861
Rp1862
aNatp1863
Rp1864
(dp1865
g21
S'[)'
p1866
sbsS'CA_CALIBRATION_SCALE'
p1867
g1853
sS'CA_DESC'
p1868
Nstp1869
Rp1870
s(Vlimonene
p1871
VApel Riemer
p1872
tp1873
g4
(g5
g6
(dp1874
S'CA_COMMENT'
p1875
NsS'CO_COMP_NAME'
p1876
g1871
sS'SYSTIME'
p1877
g4
(g11
g12
(lp1878
g14
(S'\x07\xe7\x02\x0f\x0e!7\x05\x7f\xcc'
p1879
tp1880
Rp1881
aNatp1882
Rp1883
(dp1884
g21
S'[)'
p1885
sbsS'CA_CALIBRATION_SCALE'
p1886
g1872
sS'CA_DESC'
p1887
Nstp1888
Rp1889
s(Vethene
p1890
VApel-Riemer
p1891
tp1892
g4
(g5
g6
(dp1893
S'CA_COMMENT'
p1894
NsS'CO_COMP_NAME'
p1895
g1890
sS'SYSTIME'
p1896
g4
(g11
g12
(lp1897
g14
(S'\x07\xe7\x02\x0f\x0e \x0b\x0b2\x03'
p1898
tp1899
Rp1900
aNatp1901
Rp1902
(dp1903
g21
S'[)'
p1904
sbsS'CA_CALIBRATION_SCALE'
p1905
g1891
sS'CA_DESC'
p1906
Nstp1907
Rp1908
s(Vbeta-pinene
p1909
VApel Riemer
p1910
tp1911
g4
(g5
g6
(dp1912
S'CA_COMMENT'
p1913
NsS'CO_COMP_NAME'
p1914
g1909
sS'SYSTIME'
p1915
g4
(g11
g12
(lp1916
g14
(S'\x07\xe7\x02\x0f\x0e!7\x04\xd5\x8b'
p1917
tp1918
Rp1919
aNatp1920
Rp1921
(dp1922
g21
S'[)'
p1923
sbsS'CA_CALIBRATION_SCALE'
p1924
g1910
sS'CA_DESC'
p1925
Nstp1926
Rp1927
s(Vn-heptanal
p1928
VNPL
p1929
tp1930
g4
(g5
g6
(dp1931
S'CA_COMMENT'
p1932
NsS'CO_COMP_NAME'
p1933
g1928
sS'SYSTIME'
p1934
g4
(g11
g12
(lp1935
g14
(S'\x07\xde\x05\x01\x00\x00\x00\x00\x00\x00'
p1936
tp1937
Rp1938
aNatp1939
Rp1940
(dp1941
g21
S'[)'
p1942
sbsS'CA_CALIBRATION_SCALE'
p1943
g1929
sS'CA_DESC'
p1944
Nstp1945
Rp1946
s(Vethanol
p1947
VApel-Riemer
p1948
tp1949
g4
(g5
g6
(dp1950
S'CA_COMMENT'
p1951
NsS'CO_COMP_NAME'
p1952
g1947
sS'SYSTIME'
p1953
g4
(g11
g12
(lp1954
g14
(S'\x07\xe7\x02\x0f\x0e \x0b\r\x02\n'
p1955
tp1956
Rp1957
aNatp1958
Rp1959
(dp1960
g21
S'[)'
p1961
sbsS'CA_CALIBRATION_SCALE'
p1962
g1948
sS'CA_DESC'
p1963
Nstp1964
Rp1965
s(V3-methylhexane
p1966
VNPL
p1967
tp1968
g4
(g5
g6
(dp1969
S'CA_COMMENT'
p1970
NsS'CO_COMP_NAME'
p1971
g1966
sS'SYSTIME'
p1972
g4
(g11
g12
(lp1973
g14
(S'\x07\xde\x05\x01\x00\x00\x00\x00\x00\x00'
p1974
tp1975
Rp1976
aNatp1977
Rp1978
(dp1979
g21
S'[)'
p1980
sbsS'CA_CALIBRATION_SCALE'
p1981
g1967
sS'CA_DESC'
p1982
Nstp1983
Rp1984
s(Vmethyl-cyclopentane
p1985
VNPL
p1986
tp1987
g4
(g5
g6
(dp1988
S'CA_COMMENT'
p1989
NsS'CO_COMP_NAME'
p1990
g1985
sS'SYSTIME'
p1991
g4
(g11
g12
(lp1992
g14
(S'\x07\xde\x05\x01\x00\x00\x00\x00\x00\x00'
p1993
tp1994
Rp1995
aNatp1996
Rp1997
(dp1998
g21
S'[)'
p1999
sbsS'CA_CALIBRATION_SCALE'
p2000
g1986
sS'CA_DESC'
p2001
Nstp2002
Rp2003
s(Vmonoterpenes
p2004
VNPL
p2005
tp2006
g4
(g5
g6
(dp2007
S'CA_COMMENT'
p2008
NsS'CO_COMP_NAME'
p2009
g2004
sS'SYSTIME'
p2010
g4
(g11
g12
(lp2011
g14
(S'\x07\xde\x05\x01\x00\x00\x00\x00\x00\x00'
p2012
tp2013
Rp2014
aNatp2015
Rp2016
(dp2017
g21
S'[)'
p2018
sbsS'CA_CALIBRATION_SCALE'
p2019
g2005
sS'CA_DESC'
p2020
Nstp2021
Rp2022
s(Vsulfuryl_fluoride
p2023
VSIO2007
p2024
tp2025
g4
(g5
g6
(dp2026
S'CA_COMMENT'
p2027
NsS'CO_COMP_NAME'
p2028
g2023
sS'SYSTIME'
p2029
g4
(g11
g12
(lp2030
g14
(S'\x07\xde\x05\x01\x00\x00\x00\x00\x00\x00'
p2031
tp2032
Rp2033
aNatp2034
Rp2035
(dp2036
g21
S'[)'
p2037
sbsS'CA_CALIBRATION_SCALE'
p2038
g2024
sS'CA_DESC'
p2039
Nstp2040
Rp2041
s(Vethanal
p2042
VApel-Riemer
p2043
tp2044
g4
(g5
g6
(dp2045
S'CA_COMMENT'
p2046
NsS'CO_COMP_NAME'
p2047
g2042
sS'SYSTIME'
p2048
g4
(g11
g12
(lp2049
g14
(S'\x07\xe7\x08\x1c\x0c\x0e\x0c\x03\xe6z'
p2050
tp2051
Rp2052
aNatp2053
Rp2054
(dp2055
g21
S'[)'
p2056
sbsS'CA_CALIBRATION_SCALE'
p2057
g2043
sS'CA_DESC'
p2058
Nstp2059
Rp2060
s(VHFC-245fa
p2061
VSIO2014
p2062
tp2063
g4
(g5
g6
(dp2064
S'CA_COMMENT'
p2065
NsS'CO_COMP_NAME'
p2066
g2061
sS'SYSTIME'
p2067
g4
(g11
g12
(lp2068
g14
(S'\x07\xde\x05\x01\x00\x00\x00\x00\x00\x00'
p2069
tp2070
Rp2071
aNatp2072
Rp2073
(dp2074
g21
S'[)'
p2075
sbsS'CA_CALIBRATION_SCALE'
p2076
g2062
sS'CA_DESC'
p2077
Nstp2078
Rp2079
s(Vmass_93.06_organic_compounds
p2080
VNPL
p2081
tp2082
g4
(g5
g6
(dp2083
S'CA_COMMENT'
p2084
NsS'CO_COMP_NAME'
p2085
g2080
sS'SYSTIME'
p2086
g4
(g11
g12
(lp2087
g14
(S'\x07\xe9\x01\x1f\x07\x05\x1a\x0ci\x07'
p2088
tp2089
Rp2090
aNatp2091
Rp2092
(dp2093
g21
S'[)'
p2094
sbsS'CA_CALIBRATION_SCALE'
p2095
g2081
sS'CA_DESC'
p2096
Nstp2097
Rp2098
s(V2-3-dimethylbutane
p2099
VApel-Riemer
p2100
tp2101
g4
(g5
g6
(dp2102
S'CA_COMMENT'
p2103
NsS'CO_COMP_NAME'
p2104
g2099
sS'SYSTIME'
p2105
g4
(g11
g12
(lp2106
g14
(S'\x07\xe7\x02\x0f\x0e \x0c\x00\r!'
p2107
tp2108
Rp2109
aNatp2110
Rp2111
(dp2112
g21
S'[)'
p2113
sbsS'CA_CALIBRATION_SCALE'
p2114
g2100
sS'CA_DESC'
p2115
Nstp2116
Rp2117
s(Vn-pentane
p2118
VApel Riemer
p2119
tp2120
g4
(g5
g6
(dp2121
S'CA_COMMENT'
p2122
NsS'CO_COMP_NAME'
p2123
g2118
sS'SYSTIME'
p2124
g4
(g11
g12
(lp2125
g14
(S'\x07\xe7\x02\x0f\x0e!7\x00h\x92'
p2126
tp2127
Rp2128
aNatp2129
Rp2130
(dp2131
g21
S'[)'
p2132
sbsS'CA_CALIBRATION_SCALE'
p2133
g2119
sS'CA_DESC'
p2134
Nstp2135
Rp2136
s(V2-3-dimethylbutane
p2137
VApel Riemer
p2138
tp2139
g4
(g5
g6
(dp2140
S'CA_COMMENT'
p2141
NsS'CO_COMP_NAME'
p2142
g2137
sS'SYSTIME'
p2143
g4
(g11
g12
(lp2144
g14
(S"\x07\xe7\x02\x0f\x0e!7\x01'\xe5"
p2145
tp2146
Rp2147
aNatp2148
Rp2149
(dp2150
g21
S'[)'
p2151
sbsS'CA_CALIBRATION_SCALE'
p2152
g2138
sS'CA_DESC'
p2153
Nstp2154
Rp2155
s(V1-ethyl-4-methylbenzene
p2156
VNPL
p2157
tp2158
g4
(g5
g6
(dp2159
S'CA_COMMENT'
p2160
NsS'CO_COMP_NAME'
p2161
g2156
sS'SYSTIME'
p2162
g4
(g11
g12
(lp2163
g14
(S'\x07\xde\x05\x01\x00\x00\x00\x00\x00\x00'
p2164
tp2165
Rp2166
aNatp2167
Rp2168
(dp2169
g21
S'[)'
p2170
sbsS'CA_CALIBRATION_SCALE'
p2171
g2157
sS'CA_DESC'
p2172
Nstp2173
Rp2174
s(VHFC-4310mee
p2175
VSIO2014
p2176
tp2177
g4
(g5
g6
(dp2178
S'CA_COMMENT'
p2179
NsS'CO_COMP_NAME'
p2180
g2175
sS'SYSTIME'
p2181
g4
(g11
g12
(lp2182
g14
(S'\x07\xde\x05\x01\x00\x00\x00\x00\x00\x00'
p2183
tp2184
Rp2185
aNatp2186
Rp2187
(dp2188
g21
S'[)'
p2189
sbsS'CA_CALIBRATION_SCALE'
p2190
g2176
sS'CA_DESC'
p2191
Nstp2192
Rp2193
s(Vsulfur_hexafluoride
p2194
VSIO2005
p2195
tp2196
g4
(g5
g6
(dp2197
S'CA_COMMENT'
p2198
NsS'CO_COMP_NAME'
p2199
g2194
sS'SYSTIME'
p2200
g4
(g11
g12
(lp2201
g14
(S'\x07\xde\x05\x01\x00\x00\x00\x00\x00\x00'
p2202
tp2203
Rp2204
aNatp2205
Rp2206
(dp2207
g21
S'[)'
p2208
sbsS'CA_CALIBRATION_SCALE'
p2209
g2195
sS'CA_DESC'
p2210
Nstp2211
Rp2212
s(V2-2-dimethylbutane
p2213
VApel Riemer
p2214
tp2215
g4
(g5
g6
(dp2216
S'CA_COMMENT'
p2217
NsS'CO_COMP_NAME'
p2218
g2213
sS'SYSTIME'
p2219
g4
(g11
g12
(lp2220
g14
(S'\x07\xe7\x02\x0f\x0e!7\x00\xc7\x93'
p2221
tp2222
Rp2223
aNatp2224
Rp2225
(dp2226
g21
S'[)'
p2227
sbsS'CA_CALIBRATION_SCALE'
p2228
g2214
sS'CA_DESC'
p2229
Nstp2230
Rp2231
s(Vpropanone
p2232
VNPL
p2233
tp2234
g4
(g5
g6
(dp2235
S'CA_COMMENT'
p2236
NsS'CO_COMP_NAME'
p2237
g2232
sS'SYSTIME'
p2238
g4
(g11
g12
(lp2239
g14
(S'\x07\xde\x05\x01\x00\x00\x00\x00\x00\x00'
p2240
tp2241
Rp2242
aNatp2243
Rp2244
(dp2245
g21
S'[)'
p2246
sbsS'CA_CALIBRATION_SCALE'
p2247
g2233
sS'CA_DESC'
p2248
Nstp2249
Rp2250
s(VCFC-11
p2251
VSIO2005
p2252
tp2253
g4
(g5
g6
(dp2254
S'CA_COMMENT'
p2255
NsS'CO_COMP_NAME'
p2256
g2251
sS'SYSTIME'
p2257
g4
(g11
g12
(lp2258
g14
(S'\x07\xde\x05\x01\x00\x00\x00\x00\x00\x00'
p2259
tp2260
Rp2261
aNatp2262
Rp2263
(dp2264
g21
S'[)'
p2265
sbsS'CA_CALIBRATION_SCALE'
p2266
g2252
sS'CA_DESC'
p2267
Nstp2268
Rp2269
s(Vethyne
p2270
VNPL
p2271
tp2272
g4
(g5
g6
(dp2273
S'CA_COMMENT'
p2274
NsS'CO_COMP_NAME'
p2275
g2270
sS'SYSTIME'
p2276
g4
(g11
g12
(lp2277
g14
(S'\x07\xde\x05\x01\x00\x00\x00\x00\x00\x00'
p2278
tp2279
Rp2280
aNatp2281
Rp2282
(dp2283
g21
S'[)'
p2284
sbsS'CA_CALIBRATION_SCALE'
p2285
g2271
sS'CA_DESC'
p2286
Nstp2287
Rp2288
s(Vmethyl-cyclohexane
p2289
VApel-Riemer
p2290
tp2291
g4
(g5
g6
(dp2292
S'CA_COMMENT'
p2293
NsS'CO_COMP_NAME'
p2294
g2289
sS'SYSTIME'
p2295
g4
(g11
g12
(lp2296
g14
(S'\x07\xe7\x02\x0f\x0e \x0c\x03tq'
p2297
tp2298
Rp2299
aNatp2300
Rp2301
(dp2302
g21
S'[)'
p2303
sbsS'CA_CALIBRATION_SCALE'
p2304
g2290
sS'CA_DESC'
p2305
Nstp2306
Rp2307
s(Vn-hexane
p2308
VApel Riemer
p2309
tp2310
g4
(g5
g6
(dp2311
S'CA_COMMENT'
p2312
NsS'CO_COMP_NAME'
p2313
g2308
sS'SYSTIME'
p2314
g4
(g11
g12
(lp2315
g14
(S'\x07\xe7\x02\x0f\x0e!7\x01\xe8\x8c'
p2316
tp2317
Rp2318
aNatp2319
Rp2320
(dp2321
g21
S'[)'
p2322
sbsS'CA_CALIBRATION_SCALE'
p2323
g2309
sS'CA_DESC'
p2324
Nstp2325
Rp2326
s(V1-butyne
p2327
VNPL
p2328
tp2329
g4
(g5
g6
(dp2330
S'CA_COMMENT'
p2331
NsS'CO_COMP_NAME'
p2332
g2327
sS'SYSTIME'
p2333
g4
(g11
g12
(lp2334
g14
(S'\x07\xde\x05\x01\x00\x00\x00\x00\x00\x00'
p2335
tp2336
Rp2337
aNatp2338
Rp2339
(dp2340
g21
S'[)'
p2341
sbsS'CA_CALIBRATION_SCALE'
p2342
g2328
sS'CA_DESC'
p2343
Nstp2344
Rp2345
s(Vmethanol
p2346
VApel Riemer
p2347
tp2348
g4
(g5
g6
(dp2349
S'CA_COMMENT'
p2350
NsS'CO_COMP_NAME'
p2351
g2346
sS'SYSTIME'
p2352
g4
(g11
g12
(lp2353
g14
(S'\x07\xe7\x02\x0f\x0e\x1b\x02\x0e5"'
p2354
tp2355
Rp2356
aNatp2357
Rp2358
(dp2359
g21
S'[)'
p2360
sbsS'CA_CALIBRATION_SCALE'
p2361
g2347
sS'CA_DESC'
p2362
Nstp2363
Rp2364
s(Vmass_61.028_organic_compounds
p2365
VNPL
p2366
tp2367
g4
(g5
g6
(dp2368
S'CA_COMMENT'
p2369
NsS'CO_COMP_NAME'
p2370
g2365
sS'SYSTIME'
p2371
g4
(g11
g12
(lp2372
g14
(S'\x07\xe9\x01\x1f\x07\x05\x1a\x0ci\x07'
p2373
tp2374
Rp2375
aNatp2376
Rp2377
(dp2378
g21
S'[)'
p2379
sbsS'CA_CALIBRATION_SCALE'
p2380
g2366
sS'CA_DESC'
p2381
Nstp2382
Rp2383
s(Vpropane
p2384
VSIO-p
p2385
tp2386
g4
(g5
g6
(dp2387
S'CA_COMMENT'
p2388
NsS'CO_COMP_NAME'
p2389
g2384
sS'SYSTIME'
p2390
g4
(g11
g12
(lp2391
g14
(S'\x07\xde\x05\x01\x00\x00\x00\x00\x00\x00'
p2392
tp2393
Rp2394
aNatp2395
Rp2396
(dp2397
g21
S'[)'
p2398
sbsS'CA_CALIBRATION_SCALE'
p2399
g2385
sS'CA_DESC'
p2400
Nstp2401
Rp2402
s(V2-3-dimethylpentane
p2403
VNPL
p2404
tp2405
g4
(g5
g6
(dp2406
S'CA_COMMENT'
p2407
NsS'CO_COMP_NAME'
p2408
g2403
sS'SYSTIME'
p2409
g4
(g11
g12
(lp2410
g14
(S'\x07\xde\x05\x01\x00\x00\x00\x00\x00\x00'
p2411
tp2412
Rp2413
aNatp2414
Rp2415
(dp2416
g21
S'[)'
p2417
sbsS'CA_CALIBRATION_SCALE'
p2418
g2404
sS'CA_DESC'
p2419
Nstp2420
Rp2421
s(V1-3-5-trimethylbenzene
p2422
VNPL
p2423
tp2424
g4
(g5
g6
(dp2425
S'CA_COMMENT'
p2426
NsS'CO_COMP_NAME'
p2427
g2422
sS'SYSTIME'
p2428
g4
(g11
g12
(lp2429
g14
(S'\x07\xde\x05\x01\x00\x00\x00\x00\x00\x00'
p2430
tp2431
Rp2432
aNatp2433
Rp2434
(dp2435
g21
S'[)'
p2436
sbsS'CA_CALIBRATION_SCALE'
p2437
g2423
sS'CA_DESC'
p2438
Nstp2439
Rp2440
s(Vbutanone
p2441
VApel-Riemer
p2442
tp2443
g4
(g5
g6
(dp2444
S'CA_COMMENT'
p2445
NsS'CO_COMP_NAME'
p2446
g2441
sS'SYSTIME'
p2447
g4
(g11
g12
(lp2448
g14
(S'\x07\xe7\x02\x0f\x0e \x0c\x00\xe2\x9c'
p2449
tp2450
Rp2451
aNatp2452
Rp2453
(dp2454
g21
S'[)'
p2455
sbsS'CA_CALIBRATION_SCALE'
p2456
g2442
sS'CA_DESC'
p2457
Nstp2458
Rp2459
s(Vn-pentadecane
p2460
VNPL
p2461
tp2462
g4
(g5
g6
(dp2463
S'CA_COMMENT'
p2464
NsS'CO_COMP_NAME'
p2465
g2460
sS'SYSTIME'
p2466
g4
(g11
g12
(lp2467
g14
(S'\x07\xde\x05\x01\x00\x00\x00\x00\x00\x00'
p2468
tp2469
Rp2470
aNatp2471
Rp2472
(dp2473
g21
S'[)'
p2474
sbsS'CA_CALIBRATION_SCALE'
p2475
g2461
sS'CA_DESC'
p2476
Nstp2477
Rp2478
s(Vn-propanol
p2479
VApel-Riemer
p2480
tp2481
g4
(g5
g6
(dp2482
S'CA_COMMENT'
p2483
NsS'CO_COMP_NAME'
p2484
g2479
sS'SYSTIME'
p2485
g4
(g11
g12
(lp2486
g14
(S'\x07\xe7\x02\x0f\x0e \x0b\x0e\xdeQ'
p2487
tp2488
Rp2489
aNatp2490
Rp2491
(dp2492
g21
S'[)'
p2493
sbsS'CA_CALIBRATION_SCALE'
p2494
g2480
sS'CA_DESC'
p2495
Nstp2496
Rp2497
s(Vtrichloroethene
p2498
VUB-98
p2499
tp2500
g4
(g5
g6
(dp2501
S'CA_COMMENT'
p2502
NsS'CO_COMP_NAME'
p2503
g2498
sS'SYSTIME'
p2504
g4
(g11
g12
(lp2505
g14
(S'\x07\xde\x05\x01\x00\x00\x00\x00\x00\x00'
p2506
tp2507
Rp2508
aNatp2509
Rp2510
(dp2511
g21
S'[)'
p2512
sbsS'CA_CALIBRATION_SCALE'
p2513
g2499
sS'CA_DESC'
p2514
Nstp2515
Rp2516
s(Vethane
p2517
VApel Riemer
p2518
tp2519
g4
(g5
g6
(dp2520
S'CA_COMMENT'
p2521
NsS'CO_COMP_NAME'
p2522
g2517
sS'SYSTIME'
p2523
g4
(g11
g12
(lp2524
g14
(S'\x07\xe7\x02\x0f\x0e!6\x0eLl'
p2525
tp2526
Rp2527
aNatp2528
Rp2529
(dp2530
g21
S'[)'
p2531
sbsS'CA_CALIBRATION_SCALE'
p2532
g2518
sS'CA_DESC'
p2533
Nstp2534
Rp2535
s(Vn-nonane
p2536
VApel-Riemer
p2537
tp2538
g4
(g5
g6
(dp2539
S'CA_COMMENT'
p2540
NsS'CO_COMP_NAME'
p2541
g2536
sS'SYSTIME'
p2542
g4
(g11
g12
(lp2543
g14
(S'\x07\xe7\x02\x0f\x0e \x0c\x05\x9b\x0e'
p2544
tp2545
Rp2546
aNatp2547
Rp2548
(dp2549
g21
S'[)'
p2550
sbsS'CA_CALIBRATION_SCALE'
p2551
g2537
sS'CA_DESC'
p2552
Nstp2553
Rp2554
s(Valpha-pinene
p2555
VNPL
p2556
tp2557
g4
(g5
g6
(dp2558
S'CA_COMMENT'
p2559
NsS'CO_COMP_NAME'
p2560
g2555
sS'SYSTIME'
p2561
g4
(g11
g12
(lp2562
g14
(S'\x07\xde\x05\x01\x00\x00\x00\x00\x00\x00'
p2563
tp2564
Rp2565
aNatp2566
Rp2567
(dp2568
g21
S'[)'
p2569
sbsS'CA_CALIBRATION_SCALE'
p2570
g2556
sS'CA_DESC'
p2571
Nstp2572
Rp2573
s(Vn-heptane
p2574
VApel Riemer
p2575
tp2576
g4
(g5
g6
(dp2577
S'CA_COMMENT'
p2578
NsS'CO_COMP_NAME'
p2579
g2574
sS'SYSTIME'
p2580
g4
(g11
g12
(lp2581
g14
(S'\x07\xe7\x02\x0f\x0e!7\x02\xfd\xc6'
p2582
tp2583
Rp2584
aNatp2585
Rp2586
(dp2587
g21
S'[)'
p2588
sbsS'CA_CALIBRATION_SCALE'
p2589
g2575
sS'CA_DESC'
p2590
Nstp2591
Rp2592
s(Vn-undecane
p2593
VApel Riemer
p2594
tp2595
g4
(g5
g6
(dp2596
S'CA_COMMENT'
p2597
NsS'CO_COMP_NAME'
p2598
g2593
sS'SYSTIME'
p2599
g4
(g11
g12
(lp2600
g14
(S'\x07\xe7\x02\x0f\x0e!7\x05\x9e\xc8'
p2601
tp2602
Rp2603
aNatp2604
Rp2605
(dp2606
g21
S'[)'
p2607
sbsS'CA_CALIBRATION_SCALE'
p2608
g2594
sS'CA_DESC'
p2609
Nstp2610
Rp2611
s(VCFC-114
p2612
VSIO2005
p2613
tp2614
g4
(g5
g6
(dp2615
S'CA_COMMENT'
p2616
g773
sS'CO_COMP_NAME'
p2617
g2612
sS'SYSTIME'
p2618
g4
(g11
g12
(lp2619
g14
(S'\x07\xe8\x04\x05\t.:\x0e\xbd\x17'
p2620
tp2621
Rp2622
aNatp2623
Rp2624
(dp2625
g21
S'[)'
p2626
sbsS'CA_CALIBRATION_SCALE'
p2627
g2613
sS'CA_DESC'
p2628
Nstp2629
Rp2630
s(Vbeta-phellandrene
p2631
VNPL
p2632
tp2633
g4
(g5
g6
(dp2634
S'CA_COMMENT'
p2635
NsS'CO_COMP_NAME'
p2636
g2631
sS'SYSTIME'
p2637
g4
(g11
g12
(lp2638
g14
(S'\x07\xde\x05\x01\x00\x00\x00\x00\x00\x00'
p2639
tp2640
Rp2641
aNatp2642
Rp2643
(dp2644
g21
S'[)'
p2645
sbsS'CA_CALIBRATION_SCALE'
p2646
g2632
sS'CA_DESC'
p2647
Nstp2648
Rp2649
s(Vethene
p2650
VApel Riemer
p2651
tp2652
g4
(g5
g6
(dp2653
S'CA_COMMENT'
p2654
NsS'CO_COMP_NAME'
p2655
g2650
sS'SYSTIME'
p2656
g4
(g11
g12
(lp2657
g14
(S'\x07\xe7\x02\x0f\x0e!6\r\xf6\x9a'
p2658
tp2659
Rp2660
aNatp2661
Rp2662
(dp2663
g21
S'[)'
p2664
sbsS'CA_CALIBRATION_SCALE'
p2665
g2651
sS'CA_DESC'
p2666
Nstp2667
Rp2668
s(Vethanal
p2669
VNPL
p2670
tp2671
g4
(g5
g6
(dp2672
S'CA_COMMENT'
p2673
NsS'CO_COMP_NAME'
p2674
g2669
sS'SYSTIME'
p2675
g4
(g11
g12
(lp2676
g14
(S'\x07\xde\x05\x01\x00\x00\x00\x00\x00\x00'
p2677
tp2678
Rp2679
aNatp2680
Rp2681
(dp2682
g21
S'[)'
p2683
sbsS'CA_CALIBRATION_SCALE'
p2684
g2670
sS'CA_DESC'
p2685
Nstp2686
Rp2687
s(Vlimonene
p2688
VNPL
p2689
tp2690
g4
(g5
g6
(dp2691
S'CA_COMMENT'
p2692
NsS'CO_COMP_NAME'
p2693
g2688
sS'SYSTIME'
p2694
g4
(g11
g12
(lp2695
g14
(S'\x07\xde\x05\x01\x00\x00\x00\x00\x00\x00'
p2696
tp2697
Rp2698
aNatp2699
Rp2700
(dp2701
g21
S'[)'
p2702
sbsS'CA_CALIBRATION_SCALE'
p2703
g2689
sS'CA_DESC'
p2704
Nstp2705
Rp2706
s(Vdimethylsulfide
p2707
VNPL
p2708
tp2709
g4
(g5
g6
(dp2710
S'CA_COMMENT'
p2711
NsS'CO_COMP_NAME'
p2712
g2707
sS'SYSTIME'
p2713
g4
(g11
g12
(lp2714
g14
(S'\x07\xe9\x03\x11\r\x1b\x07\x02G{'
p2715
tp2716
Rp2717
aNatp2718
Rp2719
(dp2720
g21
S'[)'
p2721
sbsS'CA_CALIBRATION_SCALE'
p2722
g2708
sS'CA_DESC'
p2723
Nstp2724
Rp2725
s(Valpha-phellandrene
p2726
VApel Riemer
p2727
tp2728
g4
(g5
g6
(dp2729
S'CA_COMMENT'
p2730
NsS'CO_COMP_NAME'
p2731
g2726
sS'SYSTIME'
p2732
g4
(g11
g12
(lp2733
g14
(S'\x07\xe7\x02\x0f\x0e!7\x053['
p2734
tp2735
Rp2736
aNatp2737
Rp2738
(dp2739
g21
S'[)'
p2740
sbsS'CA_CALIBRATION_SCALE'
p2741
g2727
sS'CA_DESC'
p2742
Nstp2743
Rp2744
s(Vcarbon_dioxide
p2745
VWMO CO2 X2007
p2746
tp2747
g4
(g5
g6
(dp2748
S'CA_COMMENT'
p2749
NsS'CO_COMP_NAME'
p2750
g2745
sS'SYSTIME'
p2751
g4
(g11
g12
(lp2752
g14
(S'\x07\xde\x05\x01\x00\x00\x00\x00\x00\x00'
p2753
tp2754
Rp2755
aNatp2756
Rp2757
(dp2758
g21
S'[)'
p2759
sbsS'CA_CALIBRATION_SCALE'
p2760
g2746
sS'CA_DESC'
p2761
Nstp2762
Rp2763
s(V2-3-dimethylpentane
p2764
VApel Riemer
p2765
tp2766
g4
(g5
g6
(dp2767
S'CA_COMMENT'
p2768
NsS'CO_COMP_NAME'
p2769
g2764
sS'SYSTIME'
p2770
g4
(g11
g12
(lp2771
g14
(S'\x07\xe7\x02\x0f\x0e!7\x02\x84\xe0'
p2772
tp2773
Rp2774
aNatp2775
Rp2776
(dp2777
g21
S'[)'
p2778
sbsS'CA_CALIBRATION_SCALE'
p2779
g2765
sS'CA_DESC'
p2780
Nstp2781
Rp2782
s(Vnaphthalene
p2783
VApel-Riemer
p2784
tp2785
g4
(g5
g6
(dp2786
S'CA_COMMENT'
p2787
NsS'CO_COMP_NAME'
p2788
g2783
sS'SYSTIME'
p2789
g4
(g11
g12
(lp2790
g14
(S'\x07\xe7\x02\x0f\x0e \x0c\x08\xc5 '
p2791
tp2792
Rp2793
aNatp2794
Rp2795
(dp2796
g21
S'[)'
p2797
sbsS'CA_CALIBRATION_SCALE'
p2798
g2784
sS'CA_DESC'
p2799
Nstp2800
Rp2801
s(Vmass_107_organic_compounds
p2802
VNPL
p2803
tp2804
g4
(g5
g6
(dp2805
S'CA_COMMENT'
p2806
NsS'CO_COMP_NAME'
p2807
g2802
sS'SYSTIME'
p2808
g4
(g11
g12
(lp2809
g14
(S'\x07\xe7\x05\t\x070)\x05P\x8f'
p2810
tp2811
Rp2812
aNatp2813
Rp2814
(dp2815
g21
S'[)'
p2816
sbsS'CA_CALIBRATION_SCALE'
p2817
g2803
sS'CA_DESC'
p2818
Nstp2819
Rp2820
s(Vn-dodecane
p2821
VApel Riemer
p2822
tp2823
g4
(g5
g6
(dp2824
S'CA_COMMENT'
p2825
NsS'CO_COMP_NAME'
p2826
g2821
sS'SYSTIME'
p2827
g4
(g11
g12
(lp2828
g14
(S"\x07\xe7\x02\x0f\x0e!7\x05\xbf'"
p2829
tp2830
Rp2831
aNatp2832
Rp2833
(dp2834
g21
S'[)'
p2835
sbsS'CA_CALIBRATION_SCALE'
p2836
g2822
sS'CA_DESC'
p2837
Nstp2838
Rp2839
s(V1-2-4-trimethylbenzene
p2840
VNPL
p2841
tp2842
g4
(g5
g6
(dp2843
S'CA_COMMENT'
p2844
NsS'CO_COMP_NAME'
p2845
g2840
sS'SYSTIME'
p2846
g4
(g11
g12
(lp2847
g14
(S'\x07\xde\x05\x01\x00\x00\x00\x00\x00\x00'
p2848
tp2849
Rp2850
aNatp2851
Rp2852
(dp2853
g21
S'[)'
p2854
sbsS'CA_CALIBRATION_SCALE'
p2855
g2841
sS'CA_DESC'
p2856
Nstp2857
Rp2858
s(VHFC-227ea
p2859
VSIO2014
p2860
tp2861
g4
(g5
g6
(dp2862
S'CA_COMMENT'
p2863
NsS'CO_COMP_NAME'
p2864
g2859
sS'SYSTIME'
p2865
g4
(g11
g12
(lp2866
g14
(S'\x07\xde\x05\x01\x00\x00\x00\x00\x00\x00'
p2867
tp2868
Rp2869
aNatp2870
Rp2871
(dp2872
g21
S'[)'
p2873
sbsS'CA_CALIBRATION_SCALE'
p2874
g2860
sS'CA_DESC'
p2875
Nstp2876
Rp2877
s(V2-4-dimethylpentane
p2878
VApel Riemer
p2879
tp2880
g4
(g5
g6
(dp2881
S'CA_COMMENT'
p2882
NsS'CO_COMP_NAME'
p2883
g2878
sS'SYSTIME'
p2884
g4
(g11
g12
(lp2885
g14
(S'\x07\xe7\x02\x0f\x0e!7\x02\x0bx'
p2886
tp2887
Rp2888
aNatp2889
Rp2890
(dp2891
g21
S'[)'
p2892
sbsS'CA_CALIBRATION_SCALE'
p2893
g2879
sS'CA_DESC'
p2894
Nstp2895
Rp2896
s(Vdibromomethane
p2897
VNOAA-Jul10-p
p2898
tp2899
g4
(g5
g6
(dp2900
S'CA_COMMENT'
p2901
NsS'CO_COMP_NAME'
p2902
g2897
sS'SYSTIME'
p2903
g4
(g11
g12
(lp2904
g14
(S'\x07\xde\x05\x01\x00\x00\x00\x00\x00\x00'
p2905
tp2906
Rp2907
aNatp2908
Rp2909
(dp2910
g21
S'[)'
p2911
sbsS'CA_CALIBRATION_SCALE'
p2912
g2898
sS'CA_DESC'
p2913
Nstp2914
Rp2915
s(Vnitrogen_trifluoride
p2916
VSIO2012
p2917
tp2918
g4
(g5
g6
(dp2919
S'CA_COMMENT'
p2920
NsS'CO_COMP_NAME'
p2921
g2916
sS'SYSTIME'
p2922
g4
(g11
g12
(lp2923
g14
(S'\x07\xde\x05\x01\x00\x00\x00\x00\x00\x00'
p2924
tp2925
Rp2926
aNatp2927
Rp2928
(dp2929
g21
S'[)'
p2930
sbsS'CA_CALIBRATION_SCALE'
p2931
g2917
sS'CA_DESC'
p2932
Nstp2933
Rp2934
s(Vn-dodecane
p2935
VApel-Riemer
p2936
tp2937
g4
(g5
g6
(dp2938
S'CA_COMMENT'
p2939
NsS'CO_COMP_NAME'
p2940
g2935
sS'SYSTIME'
p2941
g4
(g11
g12
(lp2942
g14
(S'\x07\xe7\x02\x0f\x0e \x0c\x08\x82G'
p2943
tp2944
Rp2945
aNatp2946
Rp2947
(dp2948
g21
S'[)'
p2949
sbsS'CA_CALIBRATION_SCALE'
p2950
g2936
sS'CA_DESC'
p2951
Nstp2952
Rp2953
s(V3-methylbenzaldehyde
p2954
VNPL
p2955
tp2956
g4
(g5
g6
(dp2957
S'CA_COMMENT'
p2958
NsS'CO_COMP_NAME'
p2959
g2954
sS'SYSTIME'
p2960
g4
(g11
g12
(lp2961
g14
(S'\x07\xde\x05\x01\x00\x00\x00\x00\x00\x00'
p2962
tp2963
Rp2964
aNatp2965
Rp2966
(dp2967
g21
S'[)'
p2968
sbsS'CA_CALIBRATION_SCALE'
p2969
g2955
sS'CA_DESC'
p2970
Nstp2971
Rp2972
s(Vbenzaldehyde
p2973
VNPL
p2974
tp2975
g4
(g5
g6
(dp2976
S'CA_COMMENT'
p2977
NsS'CO_COMP_NAME'
p2978
g2973
sS'SYSTIME'
p2979
g4
(g11
g12
(lp2980
g14
(S'\x07\xde\x05\x01\x00\x00\x00\x00\x00\x00'
p2981
tp2982
Rp2983
aNatp2984
Rp2985
(dp2986
g21
S'[)'
p2987
sbsS'CA_CALIBRATION_SCALE'
p2988
g2974
sS'CA_DESC'
p2989
Nstp2990
Rp2991
s(V1-2-3-trimethylbenzene
p2992
VApel-Riemer
p2993
tp2994
g4
(g5
g6
(dp2995
S'CA_COMMENT'
p2996
NsS'CO_COMP_NAME'
p2997
g2992
sS'SYSTIME'
p2998
g4
(g11
g12
(lp2999
g14
(S'\x07\xe7\x02\x0f\x0e \x0c\x07\xd7{'
p3000
tp3001
Rp3002
aNatp3003
Rp3004
(dp3005
g21
S'[)'
p3006
sbsS'CA_CALIBRATION_SCALE'
p3007
g2993
sS'CA_DESC'
p3008
Nstp3009
Rp3010
s(Vbenzene
p3011
VSIO-p
p3012
tp3013
g4
(g5
g6
(dp3014
S'CA_COMMENT'
p3015
NsS'CO_COMP_NAME'
p3016
g3011
sS'SYSTIME'
p3017
g4
(g11
g12
(lp3018
g14
(S'\x07\xde\x05\x01\x00\x00\x00\x00\x00\x00'
p3019
tp3020
Rp3021
aNatp3022
Rp3023
(dp3024
g21
S'[)'
p3025
sbsS'CA_CALIBRATION_SCALE'
p3026
g3012
sS'CA_DESC'
p3027
Nstp3028
Rp3029
s(Vn-butanal
p3030
VApel-Riemer
p3031
tp3032
g4
(g5
g6
(dp3033
S'CA_COMMENT'
p3034
NsS'CO_COMP_NAME'
p3035
g3030
sS'SYSTIME'
p3036
g4
(g11
g12
(lp3037
g14
(S'\x07\xe7\x02\x0f\x0e \x0c\x00\xb0^'
p3038
tp3039
Rp3040
aNatp3041
Rp3042
(dp3043
g21
S'[)'
p3044
sbsS'CA_CALIBRATION_SCALE'
p3045
g3031
sS'CA_DESC'
p3046
Nstp3047
Rp3048
s(Vn-decane
p3049
VApel Riemer
p3050
tp3051
g4
(g5
g6
(dp3052
S'CA_COMMENT'
p3053
NsS'CO_COMP_NAME'
p3054
g3049
sS'SYSTIME'
p3055
g4
(g11
g12
(lp3056
g14
(S'\x07\xe7\x02\x0f\x0e!7\x05\x13\x8f'
p3057
tp3058
Rp3059
aNatp3060
Rp3061
(dp3062
g21
S'[)'
p3063
sbsS'CA_CALIBRATION_SCALE'
p3064
g3050
sS'CA_DESC'
p3065
Nstp3066
Rp3067
s(Vn-pentane
p3068
VNPL
p3069
tp3070
g4
(g5
g6
(dp3071
S'CA_COMMENT'
p3072
NsS'CO_COMP_NAME'
p3073
g3068
sS'SYSTIME'
p3074
g4
(g11
g12
(lp3075
g14
(S'\x07\xde\x05\x01\x00\x00\x00\x00\x00\x00'
p3076
tp3077
Rp3078
aNatp3079
Rp3080
(dp3081
g21
S'[)'
p3082
sbsS'CA_CALIBRATION_SCALE'
p3083
g3069
sS'CA_DESC'
p3084
Nstp3085
Rp3086
s(VPFC-218
p3087
VSIO2007
p3088
tp3089
g4
(g5
g6
(dp3090
S'CA_COMMENT'
p3091
NsS'CO_COMP_NAME'
p3092
g3087
sS'SYSTIME'
p3093
g4
(g11
g12
(lp3094
g14
(S'\x07\xde\x05\x01\x00\x00\x00\x00\x00\x00'
p3095
tp3096
Rp3097
aNatp3098
Rp3099
(dp3100
g21
S'[)'
p3101
sbsS'CA_CALIBRATION_SCALE'
p3102
g3088
sS'CA_DESC'
p3103
Nstp3104
Rp3105
s(Vethane
p3106
VNPL
p3107
tp3108
g4
(g5
g6
(dp3109
S'CA_COMMENT'
p3110
NsS'CO_COMP_NAME'
p3111
g3106
sS'SYSTIME'
p3112
g4
(g11
g12
(lp3113
g14
(S'\x07\xde\x05\x01\x00\x00\x00\x00\x00\x00'
p3114
tp3115
Rp3116
aNatp3117
Rp3118
(dp3119
g21
S'[)'
p3120
sbsS'CA_CALIBRATION_SCALE'
p3121
g3107
sS'CA_DESC'
p3122
Nstp3123
Rp3124
s(V4-methylbenzaldehyde
p3125
VNPL
p3126
tp3127
g4
(g5
g6
(dp3128
S'CA_COMMENT'
p3129
NsS'CO_COMP_NAME'
p3130
g3125
sS'SYSTIME'
p3131
g4
(g11
g12
(lp3132
g14
(S'\x07\xde\x05\x01\x00\x00\x00\x00\x00\x00'
p3133
tp3134
Rp3135
aNatp3136
Rp3137
(dp3138
g21
S'[)'
p3139
sbsS'CA_CALIBRATION_SCALE'
p3140
g3126
sS'CA_DESC'
p3141
Nstp3142
Rp3143
s(V3-methylhexane
p3144
VApel Riemer
p3145
tp3146
g4
(g5
g6
(dp3147
S'CA_COMMENT'
p3148
NsS'CO_COMP_NAME'
p3149
g3144
sS'SYSTIME'
p3150
g4
(g11
g12
(lp3151
g14
(S'\x07\xe7\x02\x0f\x0e!7\x02\xa4\xee'
p3152
tp3153
Rp3154
aNatp3155
Rp3156
(dp3157
g21
S'[)'
p3158
sbsS'CA_CALIBRATION_SCALE'
p3159
g3145
sS'CA_DESC'
p3160
Nstp3161
Rp3162
s(Vbenzene
p3163
VNPL
p3164
tp3165
g4
(g5
g6
(dp3166
S'CA_COMMENT'
p3167
NsS'CO_COMP_NAME'
p3168
g3163
sS'SYSTIME'
p3169
g4
(g11
g12
(lp3170
g14
(S'\x07\xde\x05\x01\x00\x00\x00\x00\x00\x00'
p3171
tp3172
Rp3173
aNatp3174
Rp3175
(dp3176
g21
S'[)'
p3177
sbsS'CA_CALIBRATION_SCALE'
p3178
g3164
sS'CA_DESC'
p3179
Nstp3180
Rp3181
s(Vhydrogen
p3182
VMPI-2009
p3183
tp3184
g4
(g5
g6
(dp3185
S'CA_COMMENT'
p3186
g773
sS'CO_COMP_NAME'
p3187
g3182
sS'SYSTIME'
p3188
g4
(g11
g12
(lp3189
g14
(S'\x07\xe8\x04\x05\t.:\x0e\xbd\x17'
p3190
tp3191
Rp3192
aNatp3193
Rp3194
(dp3195
g21
S'[)'
p3196
sbsS'CA_CALIBRATION_SCALE'
p3197
g3183
sS'CA_DESC'
p3198
Nstp3199
Rp3200
s(Vbenzaldehyde
p3201
VApel Riemer
p3202
tp3203
g4
(g5
g6
(dp3204
S'CA_COMMENT'
p3205
NsS'CO_COMP_NAME'
p3206
g3201
sS'SYSTIME'
p3207
g4
(g11
g12
(lp3208
g14
(S'\x07\xe7\x02\x0f\x0e!7\x047\xc6'
p3209
tp3210
Rp3211
aNatp3212
Rp3213
(dp3214
g21
S'[)'
p3215
sbsS'CA_CALIBRATION_SCALE'
p3216
g3202
sS'CA_DESC'
p3217
Nstp3218
Rp3219
s(Vtrichloromethane
p3220
VSIO1998
p3221
tp3222
g4
(g5
g6
(dp3223
S'CA_COMMENT'
p3224
NsS'CO_COMP_NAME'
p3225
g3220
sS'SYSTIME'
p3226
g4
(g11
g12
(lp3227
g14
(S'\x07\xde\x05\x01\x00\x00\x00\x00\x00\x00'
p3228
tp3229
Rp3230
aNatp3231
Rp3232
(dp3233
g21
S'[)'
p3234
sbsS'CA_CALIBRATION_SCALE'
p3235
g3221
sS'CA_DESC'
p3236
Nstp3237
Rp3238
s(V2-propanol
p3239
VNPL
p3240
tp3241
g4
(g5
g6
(dp3242
S'CA_COMMENT'
p3243
NsS'CO_COMP_NAME'
p3244
g3239
sS'SYSTIME'
p3245
g4
(g11
g12
(lp3246
g14
(S'\x07\xde\x05\x01\x00\x00\x00\x00\x00\x00'
p3247
tp3248
Rp3249
aNatp3250
Rp3251
(dp3252
g21
S'[)'
p3253
sbsS'CA_CALIBRATION_SCALE'
p3254
g3240
sS'CA_DESC'
p3255
Nstp3256
Rp3257
s(Vcarbon_dioxide
p3258
VWMO CO2 X2019
p3259
tp3260
g4
(g5
g6
(dp3261
S'CA_COMMENT'
p3262
NsS'CO_COMP_NAME'
p3263
g3258
sS'SYSTIME'
p3264
g4
(g11
g12
(lp3265
g14
(S'\x07\xde\x05\x01\x00\x00\x00\x00\x00\x00'
p3266
tp3267
Rp3268
aNatp3269
Rp3270
(dp3271
g21
S'[)'
p3272
sbsS'CA_CALIBRATION_SCALE'
p3273
g3259
sS'CA_DESC'
p3274
Vhttps://doi.org/10.5194/amt-14-3015-2021
p3275
stp3276
Rp3277
s(Vn-decane
p3278
VNPL
p3279
tp3280
g4
(g5
g6
(dp3281
S'CA_COMMENT'
p3282
NsS'CO_COMP_NAME'
p3283
g3278
sS'SYSTIME'
p3284
g4
(g11
g12
(lp3285
g14
(S'\x07\xde\x05\x01\x00\x00\x00\x00\x00\x00'
p3286
tp3287
Rp3288
aNatp3289
Rp3290
(dp3291
g21
S'[)'
p3292
sbsS'CA_CALIBRATION_SCALE'
p3293
g3279
sS'CA_DESC'
p3294
Nstp3295
Rp3296
s(Vn-nonane
p3297
VNPL
p3298
tp3299
g4
(g5
g6
(dp3300
S'CA_COMMENT'
p3301
NsS'CO_COMP_NAME'
p3302
g3297
sS'SYSTIME'
p3303
g4
(g11
g12
(lp3304
g14
(S'\x07\xde\x05\x01\x00\x00\x00\x00\x00\x00'
p3305
tp3306
Rp3307
aNatp3308
Rp3309
(dp3310
g21
S'[)'
p3311
sbsS'CA_CALIBRATION_SCALE'
p3312
g3298
sS'CA_DESC'
p3313
Nstp3314
Rp3315
s(VCFC-115
p3316
VSIO2005
p3317
tp3318
g4
(g5
g6
(dp3319
S'CA_COMMENT'
p3320
NsS'CO_COMP_NAME'
p3321
g3316
sS'SYSTIME'
p3322
g4
(g11
g12
(lp3323
g14
(S'\x07\xde\x05\x01\x00\x00\x00\x00\x00\x00'
p3324
tp3325
Rp3326
aNatp3327
Rp3328
(dp3329
g21
S'[)'
p3330
sbsS'CA_CALIBRATION_SCALE'
p3331
g3317
sS'CA_DESC'
p3332
Nstp3333
Rp3334
s(VHFC-134a
p3335
VSIO2005
p3336
tp3337
g4
(g5
g6
(dp3338
S'CA_COMMENT'
p3339
NsS'CO_COMP_NAME'
p3340
g3335
sS'SYSTIME'
p3341
g4
(g11
g12
(lp3342
g14
(S'\x07\xde\x05\x01\x00\x00\x00\x00\x00\x00'
p3343
tp3344
Rp3345
aNatp3346
Rp3347
(dp3348
g21
S'[)'
p3349
sbsS'CA_CALIBRATION_SCALE'
p3350
g3336
sS'CA_DESC'
p3351
Nstp3352
Rp3353
s(Vtrichloromethane
p3354
VSIO2005
p3355
tp3356
g4
(g5
g6
(dp3357
S'CA_COMMENT'
p3358
NsS'CO_COMP_NAME'
p3359
g3354
sS'SYSTIME'
p3360
g4
(g11
g12
(lp3361
g14
(S'\x07\xde\x05\x01\x00\x00\x00\x00\x00\x00'
p3362
tp3363
Rp3364
aNatp3365
Rp3366
(dp3367
g21
S'[)'
p3368
sbsS'CA_CALIBRATION_SCALE'
p3369
g3355
sS'CA_DESC'
p3370
Nstp3371
Rp3372
s(V2-methylbutane
p3373
VApel Riemer
p3374
tp3375
g4
(g5
g6
(dp3376
S'CA_COMMENT'
p3377
NsS'CO_COMP_NAME'
p3378
g3373
sS'SYSTIME'
p3379
g4
(g11
g12
(lp3380
g14
(S'\x07\xe7\x02\x0f\x0e!7\x00\x03?'
p3381
tp3382
Rp3383
aNatp3384
Rp3385
(dp3386
g21
S'[)'
p3387
sbsS'CA_CALIBRATION_SCALE'
p3388
g3374
sS'CA_DESC'
p3389
Nstp3390
Rp3391
s(Vtrichloroethane
p3392
VSIO2005
p3393
tp3394
g4
(g5
g6
(dp3395
S'CA_COMMENT'
p3396
NsS'CO_COMP_NAME'
p3397
g3392
sS'SYSTIME'
p3398
g4
(g11
g12
(lp3399
g14
(S'\x07\xde\x05\x01\x00\x00\x00\x00\x00\x00'
p3400
tp3401
Rp3402
aNatp3403
Rp3404
(dp3405
g21
S'[)'
p3406
sbsS'CA_CALIBRATION_SCALE'
p3407
g3393
sS'CA_DESC'
p3408
Nstp3409
Rp3410
s(Vmass_61_organic_compounds
p3411
VNPL
p3412
tp3413
g4
(g5
g6
(dp3414
S'CA_COMMENT'
p3415
NsS'CO_COMP_NAME'
p3416
g3411
sS'SYSTIME'
p3417
g4
(g11
g12
(lp3418
g14
(S'\x07\xe9\x01\x1f\x07\x05\x1a\x0ci\x07'
p3419
tp3420
Rp3421
aNatp3422
Rp3423
(dp3424
g21
S'[)'
p3425
sbsS'CA_CALIBRATION_SCALE'
p3426
g3412
sS'CA_DESC'
p3427
Nstp3428
Rp3429
s(V2-4-dimethylpentane
p3430
VApel-Riemer
p3431
tp3432
g4
(g5
g6
(dp3433
S'CA_COMMENT'
p3434
NsS'CO_COMP_NAME'
p3435
g3430
sS'SYSTIME'
p3436
g4
(g11
g12
(lp3437
g14
(S'\x07\xe7\x02\x0f\x0e \x0c\x01\x92\xab'
p3438
tp3439
Rp3440
aNatp3441
Rp3442
(dp3443
g21
S'[)'
p3444
sbsS'CA_CALIBRATION_SCALE'
p3445
g3431
sS'CA_DESC'
p3446
Nstp3447
Rp3448
s(Vcarbon_monoxide
p3449
VWMO CO X2004
p3450
tp3451
g4
(g5
g6
(dp3452
S'CA_COMMENT'
p3453
NsS'CO_COMP_NAME'
p3454
g3449
sS'SYSTIME'
p3455
g4
(g11
g12
(lp3456
g14
(S'\x07\xde\x05\x01\x00\x00\x00\x00\x00\x00'
p3457
tp3458
Rp3459
aNatp3460
Rp3461
(dp3462
g21
S'[)'
p3463
sbsS'CA_CALIBRATION_SCALE'
p3464
g3450
sS'CA_DESC'
p3465
Nstp3466
Rp3467
s(Vtetrachloroethene
p3468
VNOAA-2003B
p3469
tp3470
g4
(g5
g6
(dp3471
S'CA_COMMENT'
p3472
NsS'CO_COMP_NAME'
p3473
g3468
sS'SYSTIME'
p3474
g4
(g11
g12
(lp3475
g14
(S'\x07\xde\x05\x01\x00\x00\x00\x00\x00\x00'
p3476
tp3477
Rp3478
aNatp3479
Rp3480
(dp3481
g21
S'[)'
p3482
sbsS'CA_CALIBRATION_SCALE'
p3483
g3469
sS'CA_DESC'
p3484
Nstp3485
Rp3486
s(V3-methylbutanal
p3487
VNPL
p3488
tp3489
g4
(g5
g6
(dp3490
S'CA_COMMENT'
p3491
NsS'CO_COMP_NAME'
p3492
g3487
sS'SYSTIME'
p3493
g4
(g11
g12
(lp3494
g14
(S'\x07\xde\x05\x01\x00\x00\x00\x00\x00\x00'
p3495
tp3496
Rp3497
aNatp3498
Rp3499
(dp3500
g21
S'[)'
p3501
sbsS'CA_CALIBRATION_SCALE'
p3502
g3488
sS'CA_DESC'
p3503
Nstp3504
Rp3505
s(V2-methylhexane
p3506
VApel Riemer
p3507
tp3508
g4
(g5
g6
(dp3509
S'CA_COMMENT'
p3510
NsS'CO_COMP_NAME'
p3511
g3506
sS'SYSTIME'
p3512
g4
(g11
g12
(lp3513
g14
(S'\x07\xe7\x02\x0f\x0e!7\x02eF'
p3514
tp3515
Rp3516
aNatp3517
Rp3518
(dp3519
g21
S'[)'
p3520
sbsS'CA_CALIBRATION_SCALE'
p3521
g3507
sS'CA_DESC'
p3522
Nstp3523
Rp3524
s(V2-2-4-trimethylpentane
p3525
VNPL
p3526
tp3527
g4
(g5
g6
(dp3528
S'CA_COMMENT'
p3529
NsS'CO_COMP_NAME'
p3530
g3525
sS'SYSTIME'
p3531
g4
(g11
g12
(lp3532
g14
(S'\x07\xde\x05\x01\x00\x00\x00\x00\x00\x00'
p3533
tp3534
Rp3535
aNatp3536
Rp3537
(dp3538
g21
S'[)'
p3539
sbsS'CA_CALIBRATION_SCALE'
p3540
g3526
sS'CA_DESC'
p3541
Nstp3542
Rp3543
s(Vmass_71_organic_compounds
p3544
VNPL
p3545
tp3546
g4
(g5
g6
(dp3547
S'CA_COMMENT'
p3548
NsS'CO_COMP_NAME'
p3549
g3544
sS'SYSTIME'
p3550
g4
(g11
g12
(lp3551
g14
(S'\x07\xe7\x05\t\x070)\x05+\x19'
p3552
tp3553
Rp3554
aNatp3555
Rp3556
(dp3557
g21
S'[)'
p3558
sbsS'CA_CALIBRATION_SCALE'
p3559
g3545
sS'CA_DESC'
p3560
Nstp3561
Rp3562
s(Vmethanol
p3563
VNPL
p3564
tp3565
g4
(g5
g6
(dp3566
S'CA_COMMENT'
p3567
NsS'CO_COMP_NAME'
p3568
g3563
sS'SYSTIME'
p3569
g4
(g11
g12
(lp3570
g14
(S'\x07\xde\x05\x01\x00\x00\x00\x00\x00\x00'
p3571
tp3572
Rp3573
aNatp3574
Rp3575
(dp3576
g21
S'[)'
p3577
sbsS'CA_CALIBRATION_SCALE'
p3578
g3564
sS'CA_DESC'
p3579
Nstp3580
Rp3581
s(Vpropene
p3582
VApel-Riemer
p3583
tp3584
g4
(g5
g6
(dp3585
S'CA_COMMENT'
p3586
NsS'CO_COMP_NAME'
p3587
g3582
sS'SYSTIME'
p3588
g4
(g11
g12
(lp3589
g14
(S'\x07\xe7\x02\x0f\x0e \x0b\x0b\xe9H'
p3590
tp3591
Rp3592
aNatp3593
Rp3594
(dp3595
g21
S'[)'
p3596
sbsS'CA_CALIBRATION_SCALE'
p3597
g3583
sS'CA_DESC'
p3598
Nstp3599
Rp3600
s(V3-3-dimethylpentane
p3601
VNPL
p3602
tp3603
g4
(g5
g6
(dp3604
S'CA_COMMENT'
p3605
NsS'CO_COMP_NAME'
p3606
g3601
sS'SYSTIME'
p3607
g4
(g11
g12
(lp3608
g14
(S'\x07\xde\x05\x01\x00\x00\x00\x00\x00\x00'
p3609
tp3610
Rp3611
aNatp3612
Rp3613
(dp3614
g21
S'[)'
p3615
sbsS'CA_CALIBRATION_SCALE'
p3616
g3602
sS'CA_DESC'
p3617
Nstp3618
Rp3619
s(V3-buten-2-one
p3620
VApel-Riemer
p3621
tp3622
g4
(g5
g6
(dp3623
S'CA_COMMENT'
p3624
NsS'CO_COMP_NAME'
p3625
g3620
sS'SYSTIME'
p3626
g4
(g11
g12
(lp3627
g14
(S'\x07\xe7\x02\x0f\x0e \x0c\x00y\xb0'
p3628
tp3629
Rp3630
aNatp3631
Rp3632
(dp3633
g21
S'[)'
p3634
sbsS'CA_CALIBRATION_SCALE'
p3635
g3621
sS'CA_DESC'
p3636
Nstp3637
Rp3638
s(Vn-undecane
p3639
VApel-Riemer
p3640
tp3641
g4
(g5
g6
(dp3642
S'CA_COMMENT'
p3643
NsS'CO_COMP_NAME'
p3644
g3639
sS'SYSTIME'
p3645
g4
(g11
g12
(lp3646
g14
(S'\x07\xe7\x02\x0f\x0e \x0c\x08I\xd9'
p3647
tp3648
Rp3649
aNatp3650
Rp3651
(dp3652
g21
S'[)'
p3653
sbsS'CA_CALIBRATION_SCALE'
p3654
g3640
sS'CA_DESC'
p3655
Nstp3656
Rp3657
s(Vmass_47_organic_compounds
p3658
VNPL
p3659
tp3660
g4
(g5
g6
(dp3661
S'CA_COMMENT'
p3662
NsS'CO_COMP_NAME'
p3663
g3658
sS'SYSTIME'
p3664
g4
(g11
g12
(lp3665
g14
(S'\x07\xe9\x01\x1f\x07\x05\x1a\x0ci\x07'
p3666
tp3667
Rp3668
aNatp3669
Rp3670
(dp3671
g21
S'[)'
p3672
sbsS'CA_CALIBRATION_SCALE'
p3673
g3659
sS'CA_DESC'
p3674
Nstp3675
Rp3676
s(VHFC-143a
p3677
VSIO2007
p3678
tp3679
g4
(g5
g6
(dp3680
S'CA_COMMENT'
p3681
NsS'CO_COMP_NAME'
p3682
g3677
sS'SYSTIME'
p3683
g4
(g11
g12
(lp3684
g14
(S'\x07\xde\x05\x01\x00\x00\x00\x00\x00\x00'
p3685
tp3686
Rp3687
aNatp3688
Rp3689
(dp3690
g21
S'[)'
p3691
sbsS'CA_CALIBRATION_SCALE'
p3692
g3678
sS'CA_DESC'
p3693
Nstp3694
Rp3695
s(VCFC-12
p3696
VSIO2005
p3697
tp3698
g4
(g5
g6
(dp3699
S'CA_COMMENT'
p3700
NsS'CO_COMP_NAME'
p3701
g3696
sS'SYSTIME'
p3702
g4
(g11
g12
(lp3703
g14
(S'\x07\xde\x05\x01\x00\x00\x00\x00\x00\x00'
p3704
tp3705
Rp3706
aNatp3707
Rp3708
(dp3709
g21
S'[)'
p3710
sbsS'CA_CALIBRATION_SCALE'
p3711
g3697
sS'CA_DESC'
p3712
Nstp3713
Rp3714
s(Vbenzene
p3715
VApel-Riemer
p3716
tp3717
g4
(g5
g6
(dp3718
S'CA_COMMENT'
p3719
NsS'CO_COMP_NAME'
p3720
g3715
sS'SYSTIME'
p3721
g4
(g11
g12
(lp3722
g14
(S'\x07\xe7\x02\x0f\x0e \x0c\x01\xc7?'
p3723
tp3724
Rp3725
aNatp3726
Rp3727
(dp3728
g21
S'[)'
p3729
sbsS'CA_CALIBRATION_SCALE'
p3730
g3716
sS'CA_DESC'
p3731
Nstp3732
Rp3733
s(Vn-butane
p3734
VApel Riemer
p3735
tp3736
g4
(g5
g6
(dp3737
S'CA_COMMENT'
p3738
NsS'CO_COMP_NAME'
p3739
g3734
sS'SYSTIME'
p3740
g4
(g11
g12
(lp3741
g14
(S'\x07\xe7\x02\x0f\x0e!6\x0f\x04g'
p3742
tp3743
Rp3744
aNatp3745
Rp3746
(dp3747
g21
S'[)'
p3748
sbsS'CA_CALIBRATION_SCALE'
p3749
g3735
sS'CA_DESC'
p3750
Nstp3751
Rp3752
s(Vbutenes
p3753
VNPL
p3754
tp3755
g4
(g5
g6
(dp3756
S'CA_COMMENT'
p3757
NsS'CO_COMP_NAME'
p3758
g3753
sS'SYSTIME'
p3759
g4
(g11
g12
(lp3760
g14
(S'\x07\xde\x05\x01\x00\x00\x00\x00\x00\x00'
p3761
tp3762
Rp3763
aNatp3764
Rp3765
(dp3766
g21
S'[)'
p3767
sbsS'CA_CALIBRATION_SCALE'
p3768
g3754
sS'CA_DESC'
p3769
Nstp3770
Rp3771
s(V3-methylheptane
p3772
VApel Riemer
p3773
tp3774
g4
(g5
g6
(dp3775
S'CA_COMMENT'
p3776
NsS'CO_COMP_NAME'
p3777
g3772
sS'SYSTIME'
p3778
g4
(g11
g12
(lp3779
g14
(S'\x07\xe7\x02\x0f\x0e!7\x03P\xa9'
p3780
tp3781
Rp3782
aNatp3783
Rp3784
(dp3785
g21
S'[)'
p3786
sbsS'CA_CALIBRATION_SCALE'
p3787
g3773
sS'CA_DESC'
p3788
Nstp3789
Rp3790
s(Vsum_propanone_propanal
p3791
VNPL
p3792
tp3793
g4
(g5
g6
(dp3794
S'CA_COMMENT'
p3795
NsS'CO_COMP_NAME'
p3796
g3791
sS'SYSTIME'
p3797
g4
(g11
g12
(lp3798
g14
(S'\x07\xde\x05\x01\x00\x00\x00\x00\x00\x00'
p3799
tp3800
Rp3801
aNatp3802
Rp3803
(dp3804
g21
S'[)'
p3805
sbsS'CA_CALIBRATION_SCALE'
p3806
g3792
sS'CA_DESC'
p3807
Nstp3808
Rp3809
s(V2-2-dimethylbutane
p3810
VNPL
p3811
tp3812
g4
(g5
g6
(dp3813
S'CA_COMMENT'
p3814
NsS'CO_COMP_NAME'
p3815
g3810
sS'SYSTIME'
p3816
g4
(g11
g12
(lp3817
g14
(S'\x07\xde\x05\x01\x00\x00\x00\x00\x00\x00'
p3818
tp3819
Rp3820
aNatp3821
Rp3822
(dp3823
g21
S'[)'
p3824
sbsS'CA_CALIBRATION_SCALE'
p3825
g3811
sS'CA_DESC'
p3826
Nstp3827
Rp3828
s(VHFC-152a
p3829
VSIO2005
p3830
tp3831
g4
(g5
g6
(dp3832
S'CA_COMMENT'
p3833
NsS'CO_COMP_NAME'
p3834
g3829
sS'SYSTIME'
p3835
g4
(g11
g12
(lp3836
g14
(S'\x07\xde\x05\x01\x00\x00\x00\x00\x00\x00'
p3837
tp3838
Rp3839
aNatp3840
Rp3841
(dp3842
g21
S'[)'
p3843
sbsS'CA_CALIBRATION_SCALE'
p3844
g3830
sS'CA_DESC'
p3845
Nstp3846
Rp3847
s(Vn-dodecane
p3848
VNPL
p3849
tp3850
g4
(g5
g6
(dp3851
S'CA_COMMENT'
p3852
NsS'CO_COMP_NAME'
p3853
g3848
sS'SYSTIME'
p3854
g4
(g11
g12
(lp3855
g14
(S'\x07\xde\x05\x01\x00\x00\x00\x00\x00\x00'
p3856
tp3857
Rp3858
aNatp3859
Rp3860
(dp3861
g21
S'[)'
p3862
sbsS'CA_CALIBRATION_SCALE'
p3863
g3849
sS'CA_DESC'
p3864
Nstp3865
Rp3866
s(Vethanal
p3867
VApel Riemer
p3868
tp3869
g4
(g5
g6
(dp3870
S'CA_COMMENT'
p3871
NsS'CO_COMP_NAME'
p3872
g3867
sS'SYSTIME'
p3873
g4
(g11
g12
(lp3874
g14
(S'\x07\xe7\x08\x1c\x0c\x0e\x08\x02!`'
p3875
tp3876
Rp3877
aNatp3878
Rp3879
(dp3880
g21
S'[)'
p3881
sbsS'CA_CALIBRATION_SCALE'
p3882
g3868
sS'CA_DESC'
p3883
Nstp3884
Rp3885
s(Vn-butanal
p3886
VApel Riemer
p3887
tp3888
g4
(g5
g6
(dp3889
S'CA_COMMENT'
p3890
NsS'CO_COMP_NAME'
p3891
g3886
sS'SYSTIME'
p3892
g4
(g11
g12
(lp3893
g14
(S'\x07\xe7\x02\x0f\x0e!7\x01\x8b\xd6'
p3894
tp3895
Rp3896
aNatp3897
Rp3898
(dp3899
g21
S'[)'
p3900
sbsS'CA_CALIBRATION_SCALE'
p3901
g3887
sS'CA_DESC'
p3902
Nstp3903
Rp3904
s(Vnitrogen_dioxide
p3905
VNPL+GPT
p3906
tp3907
g4
(g5
g6
(dp3908
S'CA_COMMENT'
p3909
NsS'CO_COMP_NAME'
p3910
g3905
sS'SYSTIME'
p3911
g4
(g11
g12
(lp3912
g14
(S'\x07\xde\x05\x01\x00\x00\x00\x00\x00\x00'
p3913
tp3914
Rp3915
aNatp3916
Rp3917
(dp3918
g21
S'[)'
p3919
sbsS'CA_CALIBRATION_SCALE'
p3920
g3906
sS'CA_DESC'
p3921
Nstp3922
Rp3923
s(Vdichloromethane
p3924
VSIO2014
p3925
tp3926
g4
(g5
g6
(dp3927
S'CA_COMMENT'
p3928
NsS'CO_COMP_NAME'
p3929
g3924
sS'SYSTIME'
p3930
g4
(g11
g12
(lp3931
g14
(S'\x07\xde\x05\x01\x00\x00\x00\x00\x00\x00'
p3932
tp3933
Rp3934
aNatp3935
Rp3936
(dp3937
g21
S'[)'
p3938
sbsS'CA_CALIBRATION_SCALE'
p3939
g3925
sS'CA_DESC'
p3940
Nstp3941
Rp3942
s(Vn-pentane
p3943
VApel-Riemer
p3944
tp3945
g4
(g5
g6
(dp3946
S'CA_COMMENT'
p3947
NsS'CO_COMP_NAME'
p3948
g3943
sS'SYSTIME'
p3949
g4
(g11
g12
(lp3950
g14
(S'\x07\xe7\x02\x0f\x0e \x0b\r\xee3'
p3951
tp3952
Rp3953
aNatp3954
Rp3955
(dp3956
g21
S'[)'
p3957
sbsS'CA_CALIBRATION_SCALE'
p3958
g3944
sS'CA_DESC'
p3959
Nstp3960
Rp3961
s(Vtrichloromethane
p3962
VNOAA-2003
p3963
tp3964
g4
(g5
g6
(dp3965
S'CA_COMMENT'
p3966
NsS'CO_COMP_NAME'
p3967
g3962
sS'SYSTIME'
p3968
g4
(g11
g12
(lp3969
g14
(S'\x07\xde\x05\x01\x00\x00\x00\x00\x00\x00'
p3970
tp3971
Rp3972
aNatp3973
Rp3974
(dp3975
g21
S'[)'
p3976
sbsS'CA_CALIBRATION_SCALE'
p3977
g3963
sS'CA_DESC'
p3978
Nstp3979
Rp3980
s(Vstyrene
p3981
VApel-Riemer
p3982
tp3983
g4
(g5
g6
(dp3984
S'CA_COMMENT'
p3985
NsS'CO_COMP_NAME'
p3986
g3981
sS'SYSTIME'
p3987
g4
(g11
g12
(lp3988
g14
(S'\x07\xe7\x02\x0f\x0e \x0c\x05\x1e\x85'
p3989
tp3990
Rp3991
aNatp3992
Rp3993
(dp3994
g21
S'[)'
p3995
sbsS'CA_CALIBRATION_SCALE'
p3996
g3982
sS'CA_DESC'
p3997
Nstp3998
Rp3999
s(Vn-propylbenzene
p4000
VNPL
p4001
tp4002
g4
(g5
g6
(dp4003
S'CA_COMMENT'
p4004
NsS'CO_COMP_NAME'
p4005
g4000
sS'SYSTIME'
p4006
g4
(g11
g12
(lp4007
g14
(S'\x07\xde\x05\x01\x00\x00\x00\x00\x00\x00'
p4008
tp4009
Rp4010
aNatp4011
Rp4012
(dp4013
g21
S'[)'
p4014
sbsS'CA_CALIBRATION_SCALE'
p4015
g4001
sS'CA_DESC'
p4016
Nstp4017
Rp4018
s(Valpha-terpinene
p4019
VNPL
p4020
tp4021
g4
(g5
g6
(dp4022
S'CA_COMMENT'
p4023
NsS'CO_COMP_NAME'
p4024
g4019
sS'SYSTIME'
p4025
g4
(g11
g12
(lp4026
g14
(S'\x07\xde\x05\x01\x00\x00\x00\x00\x00\x00'
p4027
tp4028
Rp4029
aNatp4030
Rp4031
(dp4032
g21
S'[)'
p4033
sbsS'CA_CALIBRATION_SCALE'
p4034
g4020
sS'CA_DESC'
p4035
Nstp4036
Rp4037
s(V1-3-5-trimethylbenzene
p4038
VApel-Riemer
p4039
tp4040
g4
(g5
g6
(dp4041
S'CA_COMMENT'
p4042
NsS'CO_COMP_NAME'
p4043
g4038
sS'SYSTIME'
p4044
g4
(g11
g12
(lp4045
g14
(S'\x07\xe7\x02\x0f\x0e \x0c\x06y\xee'
p4046
tp4047
Rp4048
aNatp4049
Rp4050
(dp4051
g21
S'[)'
p4052
sbsS'CA_CALIBRATION_SCALE'
p4053
g4039
sS'CA_DESC'
p4054
Nstp4055
Rp4056
s(Vmethyl_iodide
p4057
VNOAA-2004
p4058
tp4059
g4
(g5
g6
(dp4060
S'CA_COMMENT'
p4061
NsS'CO_COMP_NAME'
p4062
g4057
sS'SYSTIME'
p4063
g4
(g11
g12
(lp4064
g14
(S'\x07\xde\x05\x01\x00\x00\x00\x00\x00\x00'
p4065
tp4066
Rp4067
aNatp4068
Rp4069
(dp4070
g21
S'[)'
p4071
sbsS'CA_CALIBRATION_SCALE'
p4072
g4058
sS'CA_DESC'
p4073
Nstp4074
Rp4075
s(V2-methylbutane
p4076
VApel-Riemer
p4077
tp4078
g4
(g5
g6
(dp4079
S'CA_COMMENT'
p4080
NsS'CO_COMP_NAME'
p4081
g4076
sS'SYSTIME'
p4082
g4
(g11
g12
(lp4083
g14
(S'\x07\xe7\x02\x0f\x0e \x0b\r=N'
p4084
tp4085
Rp4086
aNatp4087
Rp4088
(dp4089
g21
S'[)'
p4090
sbsS'CA_CALIBRATION_SCALE'
p4091
g4077
sS'CA_DESC'
p4092
Nstp4093
Rp4094
s(Vbenzene
p4095
VUB-p
p4096
tp4097
g4
(g5
g6
(dp4098
S'CA_COMMENT'
p4099
NsS'CO_COMP_NAME'
p4100
g4095
sS'SYSTIME'
p4101
g4
(g11
g12
(lp4102
g14
(S'\x07\xde\x05\x01\x00\x00\x00\x00\x00\x00'
p4103
tp4104
Rp4105
aNatp4106
Rp4107
(dp4108
g21
S'[)'
p4109
sbsS'CA_CALIBRATION_SCALE'
p4110
g4096
sS'CA_DESC'
p4111
Nstp4112
Rp4113
s(Vn-tetradecane
p4114
VNPL
p4115
tp4116
g4
(g5
g6
(dp4117
S'CA_COMMENT'
p4118
NsS'CO_COMP_NAME'
p4119
g4114
sS'SYSTIME'
p4120
g4
(g11
g12
(lp4121
g14
(S'\x07\xde\x05\x01\x00\x00\x00\x00\x00\x00'
p4122
tp4123
Rp4124
aNatp4125
Rp4126
(dp4127
g21
S'[)'
p4128
sbsS'CA_CALIBRATION_SCALE'
p4129
g4115
sS'CA_DESC'
p4130
Nstp4131
Rp4132
s(V2-methylpropenal
p4133
VApel Riemer
p4134
tp4135
g4
(g5
g6
(dp4136
S'CA_COMMENT'
p4137
NsS'CO_COMP_NAME'
p4138
g4133
sS'SYSTIME'
p4139
g4
(g11
g12
(lp4140
g14
(S'\x07\xe7\x02\x0f\x0e!7\x01\x07\xed'
p4141
tp4142
Rp4143
aNatp4144
Rp4145
(dp4146
g21
S'[)'
p4147
sbsS'CA_CALIBRATION_SCALE'
p4148
g4134
sS'CA_DESC'
p4149
Nstp4150
Rp4151
s(Vpropane
p4152
VNPL
p4153
tp4154
g4
(g5
g6
(dp4155
S'CA_COMMENT'
p4156
NsS'CO_COMP_NAME'
p4157
g4152
sS'SYSTIME'
p4158
g4
(g11
g12
(lp4159
g14
(S'\x07\xde\x05\x01\x00\x00\x00\x00\x00\x00'
p4160
tp4161
Rp4162
aNatp4163
Rp4164
(dp4165
g21
S'[)'
p4166
sbsS'CA_CALIBRATION_SCALE'
p4167
g4153
sS'CA_DESC'
p4168
Nstp4169
Rp4170
s(Vcyclo-hexane
p4171
VApel Riemer
p4172
tp4173
g4
(g5
g6
(dp4174
S'CA_COMMENT'
p4175
NsS'CO_COMP_NAME'
p4176
g4171
sS'SYSTIME'
p4177
g4
(g11
g12
(lp4178
g14
(S'\x07\xe7\x02\x0f\x0e!7\x02G\xd7'
p4179
tp4180
Rp4181
aNatp4182
Rp4183
(dp4184
g21
S'[)'
p4185
sbsS'CA_CALIBRATION_SCALE'
p4186
g4172
sS'CA_DESC'
p4187
Nstp4188
Rp4189
s(Vmass_93.070_organic_compounds
p4190
VNPL
p4191
tp4192
g4
(g5
g6
(dp4193
S'CA_COMMENT'
p4194
NsS'CO_COMP_NAME'
p4195
g4190
sS'SYSTIME'
p4196
g4
(g11
g12
(lp4197
g14
(S'\x07\xe9\x01\x1f\x07\x05\x1a\x0ci\x07'
p4198
tp4199
Rp4200
aNatp4201
Rp4202
(dp4203
g21
S'[)'
p4204
sbsS'CA_CALIBRATION_SCALE'
p4205
g4191
sS'CA_DESC'
p4206
Nstp4207
Rp4208
s(Vn-butanal
p4209
VNPL
p4210
tp4211
g4
(g5
g6
(dp4212
S'CA_COMMENT'
p4213
NsS'CO_COMP_NAME'
p4214
g4209
sS'SYSTIME'
p4215
g4
(g11
g12
(lp4216
g14
(S'\x07\xde\x05\x01\x00\x00\x00\x00\x00\x00'
p4217
tp4218
Rp4219
aNatp4220
Rp4221
(dp4222
g21
S'[)'
p4223
sbsS'CA_CALIBRATION_SCALE'
p4224
g4210
sS'CA_DESC'
p4225
Nstp4226
Rp4227
s(V2-propenal
p4228
VNPL
p4229
tp4230
g4
(g5
g6
(dp4231
S'CA_COMMENT'
p4232
NsS'CO_COMP_NAME'
p4233
g4228
sS'SYSTIME'
p4234
g4
(g11
g12
(lp4235
g14
(S'\x07\xde\x05\x01\x00\x00\x00\x00\x00\x00'
p4236
tp4237
Rp4238
aNatp4239
Rp4240
(dp4241
g21
S'[)'
p4242
sbsS'CA_CALIBRATION_SCALE'
p4243
g4229
sS'CA_DESC'
p4244
Nstp4245
Rp4246
s(Vn-propylbenzene
p4247
VApel-Riemer
p4248
tp4249
g4
(g5
g6
(dp4250
S'CA_COMMENT'
p4251
NsS'CO_COMP_NAME'
p4252
g4247
sS'SYSTIME'
p4253
g4
(g11
g12
(lp4254
g14
(S'\x07\xe7\x02\x0f\x0e \x0c\x06B\x9a'
p4255
tp4256
Rp4257
aNatp4258
Rp4259
(dp4260
g21
S'[)'
p4261
sbsS'CA_CALIBRATION_SCALE'
p4262
g4248
sS'CA_DESC'
p4263
Nstp4264
Rp4265
s(V3-buten-2-one
p4266
VApel Riemer
p4267
tp4268
g4
(g5
g6
(dp4269
S'CA_COMMENT'
p4270
NsS'CO_COMP_NAME'
p4271
g4266
sS'SYSTIME'
p4272
g4
(g11
g12
(lp4273
g14
(S'\x07\xe7\x02\x0f\x0e!7\x01l\x01'
p4274
tp4275
Rp4276
aNatp4277
Rp4278
(dp4279
g21
S'[)'
p4280
sbsS'CA_CALIBRATION_SCALE'
p4281
g4267
sS'CA_DESC'
p4282
Nstp4283
Rp4284
s(Vterpinolene
p4285
VNPL
p4286
tp4287
g4
(g5
g6
(dp4288
S'CA_COMMENT'
p4289
NsS'CO_COMP_NAME'
p4290
g4285
sS'SYSTIME'
p4291
g4
(g11
g12
(lp4292
g14
(S'\x07\xde\x05\x01\x00\x00\x00\x00\x00\x00'
p4293
tp4294
Rp4295
aNatp4296
Rp4297
(dp4298
g21
S'[)'
p4299
sbsS'CA_CALIBRATION_SCALE'
p4300
g4286
sS'CA_DESC'
p4301
Nstp4302
Rp4303
s(Vmass_107.086_organic_compounds
p4304
VNPL
p4305
tp4306
g4
(g5
g6
(dp4307
S'CA_COMMENT'
p4308
NsS'CO_COMP_NAME'
p4309
g4304
sS'SYSTIME'
p4310
g4
(g11
g12
(lp4311
g14
(S'\x07\xe9\x01\x1f\x07\x05\x1a\x0ci\x07'
p4312
tp4313
Rp4314
aNatp4315
Rp4316
(dp4317
g21
S'[)'
p4318
sbsS'CA_CALIBRATION_SCALE'
p4319
g4305
sS'CA_DESC'
p4320
Nstp4321
Rp4322
s(Vcyclo-pentene
p4323
VNPL
p4324
tp4325
g4
(g5
g6
(dp4326
S'CA_COMMENT'
p4327
NsS'CO_COMP_NAME'
p4328
g4323
sS'SYSTIME'
p4329
g4
(g11
g12
(lp4330
g14
(S'\x07\xde\x05\x01\x00\x00\x00\x00\x00\x00'
p4331
tp4332
Rp4333
aNatp4334
Rp4335
(dp4336
g21
S'[)'
p4337
sbsS'CA_CALIBRATION_SCALE'
p4338
g4324
sS'CA_DESC'
p4339
Nstp4340
Rp4341
s(Vn-propylbenzene
p4342
VApel Riemer
p4343
tp4344
g4
(g5
g6
(dp4345
S'CA_COMMENT'
p4346
NsS'CO_COMP_NAME'
p4347
g4342
sS'SYSTIME'
p4348
g4
(g11
g12
(lp4349
g14
(S'\x07\xe7\x02\x0f\x0e!7\x04xD'
p4350
tp4351
Rp4352
aNatp4353
Rp4354
(dp4355
g21
S'[)'
p4356
sbsS'CA_CALIBRATION_SCALE'
p4357
g4343
sS'CA_DESC'
p4358
Nstp4359
Rp4360
s(VPFC-116
p4361
VSIO2007
p4362
tp4363
g4
(g5
g6
(dp4364
S'CA_COMMENT'
p4365
NsS'CO_COMP_NAME'
p4366
g4361
sS'SYSTIME'
p4367
g4
(g11
g12
(lp4368
g14
(S'\x07\xde\x05\x01\x00\x00\x00\x00\x00\x00'
p4369
tp4370
Rp4371
aNatp4372
Rp4373
(dp4374
g21
S'[)'
p4375
sbsS'CA_CALIBRATION_SCALE'
p4376
g4362
sS'CA_DESC'
p4377
Nstp4378
Rp4379
s(Vbeta-pinene
p4380
VApel-Riemer
p4381
tp4382
g4
(g5
g6
(dp4383
S'CA_COMMENT'
p4384
NsS'CO_COMP_NAME'
p4385
g4380
sS'SYSTIME'
p4386
g4
(g11
g12
(lp4387
g14
(S'\x07\xe7\x02\x0f\x0e \x0c\x06\xf1Y'
p4388
tp4389
Rp4390
aNatp4391
Rp4392
(dp4393
g21
S'[)'
p4394
sbsS'CA_CALIBRATION_SCALE'
p4395
g4381
sS'CA_DESC'
p4396
Nstp4397
Rp4398
s(Vnaphthalene
p4399
VApel Riemer
p4400
tp4401
g4
(g5
g6
(dp4402
S'CA_COMMENT'
p4403
NsS'CO_COMP_NAME'
p4404
g4399
sS'SYSTIME'
p4405
g4
(g11
g12
(lp4406
g14
(S'\x07\xe7\x02\x0f\x0e!7\x05\xdf+'
p4407
tp4408
Rp4409
aNatp4410
Rp4411
(dp4412
g21
S'[)'
p4413
sbsS'CA_CALIBRATION_SCALE'
p4414
g4400
sS'CA_DESC'
p4415
Nstp4416
Rp4417
s(Vcarbon_monoxide
p4418
VWMO CO X2014
p4419
tp4420
g4
(g5
g6
(dp4421
S'CA_COMMENT'
p4422
NsS'CO_COMP_NAME'
p4423
g4418
sS'SYSTIME'
p4424
g4
(g11
g12
(lp4425
g14
(S'\x07\xde\x05\x01\x00\x00\x00\x00\x00\x00'
p4426
tp4427
Rp4428
aNatp4429
Rp4430
(dp4431
g21
S'[)'
p4432
sbsS'CA_CALIBRATION_SCALE'
p4433
g4419
sS'CA_DESC'
p4434
Nstp4435
Rp4436
s(Vethane
p4437
VApel-Riemer
p4438
tp4439
g4
(g5
g6
(dp4440
S'CA_COMMENT'
p4441
NsS'CO_COMP_NAME'
p4442
g4437
sS'SYSTIME'
p4443
g4
(g11
g12
(lp4444
g14
(S'\x07\xe7\x02\x0f\x0e \x0b\x0b\xad\xa5'
p4445
tp4446
Rp4447
aNatp4448
Rp4449
(dp4450
g21
S'[)'
p4451
sbsS'CA_CALIBRATION_SCALE'
p4452
g4438
sS'CA_DESC'
p4453
Nstp4454
Rp4455
s(V3-methylpentane
p4456
VApel Riemer
p4457
tp4458
g4
(g5
g6
(dp4459
S'CA_COMMENT'
p4460
NsS'CO_COMP_NAME'
p4461
g4456
sS'SYSTIME'
p4462
g4
(g11
g12
(lp4463
g14
(S'\x07\xe7\x02\x0f\x0e!7\x01\xc8K'
p4464
tp4465
Rp4466
aNatp4467
Rp4468
(dp4469
g21
S'[)'
p4470
sbsS'CA_CALIBRATION_SCALE'
p4471
g4457
sS'CA_DESC'
p4472
Nstp4473
Rp4474
s(Vethyne
p4475
VApel Riemer
p4476
tp4477
g4
(g5
g6
(dp4478
S'CA_COMMENT'
p4479
NsS'CO_COMP_NAME'
p4480
g4475
sS'SYSTIME'
p4481
g4
(g11
g12
(lp4482
g14
(S'\x07\xe7\x02\x0f\x0e!6\x0e)\x92'
p4483
tp4484
Rp4485
aNatp4486
Rp4487
(dp4488
g21
S'[)'
p4489
sbsS'CA_CALIBRATION_SCALE'
p4490
g4476
sS'CA_DESC'
p4491
Nstp4492
Rp4493
s(Vpropanal
p4494
VNPL
p4495
tp4496
g4
(g5
g6
(dp4497
S'CA_COMMENT'
p4498
NsS'CO_COMP_NAME'
p4499
g4494
sS'SYSTIME'
p4500
g4
(g11
g12
(lp4501
g14
(S'\x07\xde\x05\x01\x00\x00\x00\x00\x00\x00'
p4502
tp4503
Rp4504
aNatp4505
Rp4506
(dp4507
g21
S'[)'
p4508
sbsS'CA_CALIBRATION_SCALE'
p4509
g4495
sS'CA_DESC'
p4510
Nstp4511
Rp4512
s(V1-2-3-trimethylbenzene
p4513
VApel Riemer
p4514
tp4515
g4
(g5
g6
(dp4516
S'CA_COMMENT'
p4517
NsS'CO_COMP_NAME'
p4518
g4513
sS'SYSTIME'
p4519
g4
(g11
g12
(lp4520
g14
(S'\x07\xe7\x02\x0f\x0e!7\x05U\x10'
p4521
tp4522
Rp4523
aNatp4524
Rp4525
(dp4526
g21
S'[)'
p4527
sbsS'CA_CALIBRATION_SCALE'
p4528
g4514
sS'CA_DESC'
p4529
Nstp4530
Rp4531
s(VPFC-318
p4532
VSIO2014
p4533
tp4534
g4
(g5
g6
(dp4535
S'CA_COMMENT'
p4536
NsS'CO_COMP_NAME'
p4537
g4532
sS'SYSTIME'
p4538
g4
(g11
g12
(lp4539
g14
(S'\x07\xde\x05\x01\x00\x00\x00\x00\x00\x00'
p4540
tp4541
Rp4542
aNatp4543
Rp4544
(dp4545
g21
S'[)'
p4546
sbsS'CA_CALIBRATION_SCALE'
p4547
g4533
sS'CA_DESC'
p4548
Nstp4549
Rp4550
s(Vmass_59_organic_compounds
p4551
VNPL
p4552
tp4553
g4
(g5
g6
(dp4554
S'CA_COMMENT'
p4555
NsS'CO_COMP_NAME'
p4556
g4551
sS'SYSTIME'
p4557
g4
(g11
g12
(lp4558
g14
(S'\x07\xe7\x05\t\x070)\x04\xd5\xdf'
p4559
tp4560
Rp4561
aNatp4562
Rp4563
(dp4564
g21
S'[)'
p4565
sbsS'CA_CALIBRATION_SCALE'
p4566
g4552
sS'CA_DESC'
p4567
Nstp4568
Rp4569
s(VH-2402
p4570
VSIO2014
p4571
tp4572
g4
(g5
g6
(dp4573
S'CA_COMMENT'
p4574
NsS'CO_COMP_NAME'
p4575
g4570
sS'SYSTIME'
p4576
g4
(g11
g12
(lp4577
g14
(S'\x07\xde\x05\x01\x00\x00\x00\x00\x00\x00'
p4578
tp4579
Rp4580
aNatp4581
Rp4582
(dp4583
g21
S'[)'
p4584
sbsS'CA_CALIBRATION_SCALE'
p4585
g4571
sS'CA_DESC'
p4586
Nstp4587
Rp4588
s(Vstyrene
p4589
VApel Riemer
p4590
tp4591
g4
(g5
g6
(dp4592
S'CA_COMMENT'
p4593
NsS'CO_COMP_NAME'
p4594
g4589
sS'SYSTIME'
p4595
g4
(g11
g12
(lp4596
g14
(S'\x07\xe7\x02\x0f\x0e!7\x03\xe1g'
p4597
tp4598
Rp4599
aNatp4600
Rp4601
(dp4602
g21
S'[)'
p4603
sbsS'CA_CALIBRATION_SCALE'
p4604
g4590
sS'CA_DESC'
p4605
Nstp4606
Rp4607
s(Vcamphene
p4608
VNPL
p4609
tp4610
g4
(g5
g6
(dp4611
S'CA_COMMENT'
p4612
NsS'CO_COMP_NAME'
p4613
g4608
sS'SYSTIME'
p4614
g4
(g11
g12
(lp4615
g14
(S'\x07\xde\x05\x01\x00\x00\x00\x00\x00\x00'
p4616
tp4617
Rp4618
aNatp4619
Rp4620
(dp4621
g21
S'[)'
p4622
sbsS'CA_CALIBRATION_SCALE'
p4623
g4609
sS'CA_DESC'
p4624
Nstp4625
Rp4626
s(Visoprene
p4627
VApel Riemer
p4628
tp4629
g4
(g5
g6
(dp4630
S'CA_COMMENT'
p4631
NsS'CO_COMP_NAME'
p4632
g4627
sS'SYSTIME'
p4633
g4
(g11
g12
(lp4634
g14
(S'\x07\xe7\x02\x0f\x0e!7\x00\x87~'
p4635
tp4636
Rp4637
aNatp4638
Rp4639
(dp4640
g21
S'[)'
p4641
sbsS'CA_CALIBRATION_SCALE'
p4642
g4628
sS'CA_DESC'
p4643
Nstp4644
Rp4645
s(V2-3-dimethylpentane
p4646
VApel-Riemer
p4647
tp4648
g4
(g5
g6
(dp4649
S'CA_COMMENT'
p4650
NsS'CO_COMP_NAME'
p4651
g4646
sS'SYSTIME'
p4652
g4
(g11
g12
(lp4653
g14
(S'\x07\xe7\x02\x0f\x0e \x0c\x02k\n'
p4654
tp4655
Rp4656
aNatp4657
Rp4658
(dp4659
g21
S'[)'
p4660
sbsS'CA_CALIBRATION_SCALE'
p4661
g4647
sS'CA_DESC'
p4662
Nstp4663
Rp4664
s(Vpropane
p4665
VSIO2005
p4666
tp4667
g4
(g5
g6
(dp4668
S'CA_COMMENT'
p4669
NsS'CO_COMP_NAME'
p4670
g4665
sS'SYSTIME'
p4671
g4
(g11
g12
(lp4672
g14
(S'\x07\xde\x05\x01\x00\x00\x00\x00\x00\x00'
p4673
tp4674
Rp4675
aNatp4676
Rp4677
(dp4678
g21
S'[)'
p4679
sbsS'CA_CALIBRATION_SCALE'
p4680
g4666
sS'CA_DESC'
p4681
Nstp4682
Rp4683
s(V2-2-dimethylpropane
p4684
VNPL
p4685
tp4686
g4
(g5
g6
(dp4687
S'CA_COMMENT'
p4688
NsS'CO_COMP_NAME'
p4689
g4684
sS'SYSTIME'
p4690
g4
(g11
g12
(lp4691
g14
(S'\x07\xde\x05\x01\x00\x00\x00\x00\x00\x00'
p4692
tp4693
Rp4694
aNatp4695
Rp4696
(dp4697
g21
S'[)'
p4698
sbsS'CA_CALIBRATION_SCALE'
p4699
g4685
sS'CA_DESC'
p4700
Nstp4701
Rp4702
s(Vcis-2-butene
p4703
VNPL
p4704
tp4705
g4
(g5
g6
(dp4706
S'CA_COMMENT'
p4707
NsS'CO_COMP_NAME'
p4708
g4703
sS'SYSTIME'
p4709
g4
(g11
g12
(lp4710
g14
(S'\x07\xde\x05\x01\x00\x00\x00\x00\x00\x00'
p4711
tp4712
Rp4713
aNatp4714
Rp4715
(dp4716
g21
S'[)'
p4717
sbsS'CA_CALIBRATION_SCALE'
p4718
g4704
sS'CA_DESC'
p4719
Nstp4720
Rp4721
s(Vhexanal
p4722
VApel-Riemer
p4723
tp4724
g4
(g5
g6
(dp4725
S'CA_COMMENT'
p4726
NsS'CO_COMP_NAME'
p4727
g4722
sS'SYSTIME'
p4728
g4
(g11
g12
(lp4729
g14
(S'\x07\xe7\x02\x0f\x0e \x0c\x040a'
p4730
tp4731
Rp4732
aNatp4733
Rp4734
(dp4735
g21
S'[)'
p4736
sbsS'CA_CALIBRATION_SCALE'
p4737
g4723
sS'CA_DESC'
p4738
Nstp4739
Rp4740
s(Vbeta-pinene
p4741
VNPL
p4742
tp4743
g4
(g5
g6
(dp4744
S'CA_COMMENT'
p4745
NsS'CO_COMP_NAME'
p4746
g4741
sS'SYSTIME'
p4747
g4
(g11
g12
(lp4748
g14
(S'\x07\xde\x05\x01\x00\x00\x00\x00\x00\x00'
p4749
tp4750
Rp4751
aNatp4752
Rp4753
(dp4754
g21
S'[)'
p4755
sbsS'CA_CALIBRATION_SCALE'
p4756
g4742
sS'CA_DESC'
p4757
Nstp4758
Rp4759
s(V2-methylpropenal
p4760
VApel-Riemer
p4761
tp4762
g4
(g5
g6
(dp4763
S'CA_COMMENT'
p4764
NsS'CO_COMP_NAME'
p4765
g4760
sS'SYSTIME'
p4766
g4
(g11
g12
(lp4767
g14
(S'\x07\xe7\x02\x0f\x0e \x0b\x0f\x19\xb2'
p4768
tp4769
Rp4770
aNatp4771
Rp4772
(dp4773
g21
S'[)'
p4774
sbsS'CA_CALIBRATION_SCALE'
p4775
g4761
sS'CA_DESC'
p4776
Nstp4777
Rp4778
s(Vmethane
p4779
VNOAA04
p4780
tp4781
g4
(g5
g6
(dp4782
S'CA_COMMENT'
p4783
NsS'CO_COMP_NAME'
p4784
g4779
sS'SYSTIME'
p4785
g4
(g11
g12
(lp4786
g14
(S'\x07\xde\x05\x01\x00\x00\x00\x00\x00\x00'
p4787
tp4788
Rp4789
aNatp4790
Rp4791
(dp4792
g21
S'[)'
p4793
sbsS'CA_CALIBRATION_SCALE'
p4794
g4780
sS'CA_DESC'
p4795
Nstp4796
Rp4797
s(VC8-alkylbenzenes
p4798
VNPL
p4799
tp4800
g4
(g5
g6
(dp4801
S'CA_COMMENT'
p4802
NsS'CO_COMP_NAME'
p4803
g4798
sS'SYSTIME'
p4804
g4
(g11
g12
(lp4805
g14
(S'\x07\xde\x05\x01\x00\x00\x00\x00\x00\x00'
p4806
tp4807
Rp4808
aNatp4809
Rp4810
(dp4811
g21
S'[)'
p4812
sbsS'CA_CALIBRATION_SCALE'
p4813
g4799
sS'CA_DESC'
p4814
Nstp4815
Rp4816
s(VHFC-236fa
p4817
VSIO2014
p4818
tp4819
g4
(g5
g6
(dp4820
S'CA_COMMENT'
p4821
NsS'CO_COMP_NAME'
p4822
g4817
sS'SYSTIME'
p4823
g4
(g11
g12
(lp4824
g14
(S'\x07\xde\x05\x01\x00\x00\x00\x00\x00\x00'
p4825
tp4826
Rp4827
aNatp4828
Rp4829
(dp4830
g21
S'[)'
p4831
sbsS'CA_CALIBRATION_SCALE'
p4832
g4818
sS'CA_DESC'
p4833
Nstp4834
Rp4835
s(Vpropane
p4836
VApel Riemer
p4837
tp4838
g4
(g5
g6
(dp4839
S'CA_COMMENT'
p4840
NsS'CO_COMP_NAME'
p4841
g4836
sS'SYSTIME'
p4842
g4
(g11
g12
(lp4843
g14
(S'\x07\xe7\x02\x0f\x0e!6\x0e\x92A'
p4844
tp4845
Rp4846
aNatp4847
Rp4848
(dp4849
g21
S'[)'
p4850
sbsS'CA_CALIBRATION_SCALE'
p4851
g4837
sS'CA_DESC'
p4852
Nstp4853
Rp4854
s(Vgamma-terpinene
p4855
VNPL
p4856
tp4857
g4
(g5
g6
(dp4858
S'CA_COMMENT'
p4859
NsS'CO_COMP_NAME'
p4860
g4855
sS'SYSTIME'
p4861
g4
(g11
g12
(lp4862
g14
(S'\x07\xde\x05\x01\x00\x00\x00\x00\x00\x00'
p4863
tp4864
Rp4865
aNatp4866
Rp4867
(dp4868
g21
S'[)'
p4869
sbsS'CA_CALIBRATION_SCALE'
p4870
g4856
sS'CA_DESC'
p4871
Nstp4872
Rp4873
s(V3-methylheptane
p4874
VApel-Riemer
p4875
tp4876
g4
(g5
g6
(dp4877
S'CA_COMMENT'
p4878
NsS'CO_COMP_NAME'
p4879
g4874
sS'SYSTIME'
p4880
g4
(g11
g12
(lp4881
g14
(S'\x07\xe7\x02\x0f\x0e \x0c\x03\xf2\xb5'
p4882
tp4883
Rp4884
aNatp4885
Rp4886
(dp4887
g21
S'[)'
p4888
sbsS'CA_CALIBRATION_SCALE'
p4889
g4875
sS'CA_DESC'
p4890
Nstp4891
Rp4892
s(Vcarbon_monoxide
p4893
VWMO CO X2014A
p4894
tp4895
g4
(g5
g6
(dp4896
S'CA_COMMENT'
p4897
NsS'CO_COMP_NAME'
p4898
g4893
sS'SYSTIME'
p4899
g4
(g11
g12
(lp4900
g14
(S'\x07\xde\x05\x01\x00\x00\x00\x00\x00\x00'
p4901
tp4902
Rp4903
aNatp4904
Rp4905
(dp4906
g21
S'[)'
p4907
sbsS'CA_CALIBRATION_SCALE'
p4908
g4894
sS'CA_DESC'
p4909
Nstp4910
Rp4911
s(Vtricyclene
p4912
VNPL
p4913
tp4914
g4
(g5
g6
(dp4915
S'CA_COMMENT'
p4916
NsS'CO_COMP_NAME'
p4917
g4912
sS'SYSTIME'
p4918
g4
(g11
g12
(lp4919
g14
(S'\x07\xde\x05\x01\x00\x00\x00\x00\x00\x00'
p4920
tp4921
Rp4922
aNatp4923
Rp4924
(dp4925
g21
S'[)'
p4926
sbsS'CA_CALIBRATION_SCALE'
p4927
g4913
sS'CA_DESC'
p4928
Nstp4929
Rp4930
s(V2-2-4-trimethylpentane
p4931
VApel-Riemer
p4932
tp4933
g4
(g5
g6
(dp4934
S'CA_COMMENT'
p4935
NsS'CO_COMP_NAME'
p4936
g4931
sS'SYSTIME'
p4937
g4
(g11
g12
(lp4938
g14
(S'\x07\xe7\x02\x0f\x0e \x0c\x03\n\xcc'
p4939
tp4940
Rp4941
aNatp4942
Rp4943
(dp4944
g21
S'[)'
p4945
sbsS'CA_CALIBRATION_SCALE'
p4946
g4932
sS'CA_DESC'
p4947
Nstp4948
Rp4949
s(Vo-xylene
p4950
VApel Riemer
p4951
tp4952
g4
(g5
g6
(dp4953
S'CA_COMMENT'
p4954
NsS'CO_COMP_NAME'
p4955
g4950
sS'SYSTIME'
p4956
g4
(g11
g12
(lp4957
g14
(S'\x07\xe7\x02\x0f\x0e!7\x03\xfe\x88'
p4958
tp4959
Rp4960
aNatp4961
Rp4962
(dp4963
g21
S'[)'
p4964
sbsS'CA_CALIBRATION_SCALE'
p4965
g4951
sS'CA_DESC'
p4966
Nstp4967
Rp4968
s(Vn-undecane
p4969
VNPL
p4970
tp4971
g4
(g5
g6
(dp4972
S'CA_COMMENT'
p4973
NsS'CO_COMP_NAME'
p4974
g4969
sS'SYSTIME'
p4975
g4
(g11
g12
(lp4976
g14
(S'\x07\xde\x05\x01\x00\x00\x00\x00\x00\x00'
p4977
tp4978
Rp4979
aNatp4980
Rp4981
(dp4982
g21
S'[)'
p4983
sbsS'CA_CALIBRATION_SCALE'
p4984
g4970
sS'CA_DESC'
p4985
Nstp4986
Rp4987
s(V2-2-4-trimethylpentane
p4988
VApel Riemer
p4989
tp4990
g4
(g5
g6
(dp4991
S'CA_COMMENT'
p4992
NsS'CO_COMP_NAME'
p4993
g4988
sS'SYSTIME'
p4994
g4
(g11
g12
(lp4995
g14
(S'\x07\xe7\x02\x0f\x0e!7\x02\xe0}'
p4996
tp4997
Rp4998
aNatp4999
Rp5000
(dp5001
g21
S'[)'
p5002
sbsS'CA_CALIBRATION_SCALE'
p5003
g4989
sS'CA_DESC'
p5004
Nstp5005
Rp5006
s(Vbutanone
p5007
VNPL
p5008
tp5009
g4
(g5
g6
(dp5010
S'CA_COMMENT'
p5011
NsS'CO_COMP_NAME'
p5012
g5007
sS'SYSTIME'
p5013
g4
(g11
g12
(lp5014
g14
(S'\x07\xde\x05\x01\x00\x00\x00\x00\x00\x00'
p5015
tp5016
Rp5017
aNatp5018
Rp5019
(dp5020
g21
S'[)'
p5021
sbsS'CA_CALIBRATION_SCALE'
p5022
g5008
sS'CA_DESC'
p5023
Nstp5024
Rp5025
s(Vethanedial
p5026
VNPL
p5027
tp5028
g4
(g5
g6
(dp5029
S'CA_COMMENT'
p5030
NsS'CO_COMP_NAME'
p5031
g5026
sS'SYSTIME'
p5032
g4
(g11
g12
(lp5033
g14
(S'\x07\xde\x05\x01\x00\x00\x00\x00\x00\x00'
p5034
tp5035
Rp5036
aNatp5037
Rp5038
(dp5039
g21
S'[)'
p5040
sbsS'CA_CALIBRATION_SCALE'
p5041
g5027
sS'CA_DESC'
p5042
Nstp5043
Rp5044
s(Vtrans-2-butene
p5045
VNPL
p5046
tp5047
g4
(g5
g6
(dp5048
S'CA_COMMENT'
p5049
NsS'CO_COMP_NAME'
p5050
g5045
sS'SYSTIME'
p5051
g4
(g11
g12
(lp5052
g14
(S'\x07\xde\x05\x01\x00\x00\x00\x00\x00\x00'
p5053
tp5054
Rp5055
aNatp5056
Rp5057
(dp5058
g21
S'[)'
p5059
sbsS'CA_CALIBRATION_SCALE'
p5060
g5046
sS'CA_DESC'
p5061
Nstp5062
Rp5063
s(Vn-octanal
p5064
VNPL
p5065
tp5066
g4
(g5
g6
(dp5067
S'CA_COMMENT'
p5068
NsS'CO_COMP_NAME'
p5069
g5064
sS'SYSTIME'
p5070
g4
(g11
g12
(lp5071
g14
(S'\x07\xde\x05\x01\x00\x00\x00\x00\x00\x00'
p5072
tp5073
Rp5074
aNatp5075
Rp5076
(dp5077
g21
S'[)'
p5078
sbsS'CA_CALIBRATION_SCALE'
p5079
g5065
sS'CA_DESC'
p5080
Nstp5081
Rp5082
s(Vmethanol
p5083
VApel-Riemer
p5084
tp5085
g4
(g5
g6
(dp5086
S'CA_COMMENT'
p5087
NsS'CO_COMP_NAME'
p5088
g5083
sS'SYSTIME'
p5089
g4
(g11
g12
(lp5090
g14
(S'\x07\xe7\x02\x0f\x0e \x0b\n\xcb\x81'
p5091
tp5092
Rp5093
aNatp5094
Rp5095
(dp5096
g21
S'[)'
p5097
sbsS'CA_CALIBRATION_SCALE'
p5098
g5084
sS'CA_DESC'
p5099
Nstp5100
Rp5101
s(Vbenzene
p5102
VApel Riemer
p5103
tp5104
g4
(g5
g6
(dp5105
S'CA_COMMENT'
p5106
NsS'CO_COMP_NAME'
p5107
g5102
sS'SYSTIME'
p5108
g4
(g11
g12
(lp5109
g14
(S'\x07\xe7\x02\x0f\x0e!7\x02)\x9b'
p5110
tp5111
Rp5112
aNatp5113
Rp5114
(dp5115
g21
S'[)'
p5116
sbsS'CA_CALIBRATION_SCALE'
p5117
g5103
sS'CA_DESC'
p5118
Nstp5119
Rp5120
s(Vm-cymene
p5121
VNPL
p5122
tp5123
g4
(g5
g6
(dp5124
S'CA_COMMENT'
p5125
NsS'CO_COMP_NAME'
p5126
g5121
sS'SYSTIME'
p5127
g4
(g11
g12
(lp5128
g14
(S'\x07\xde\x05\x01\x00\x00\x00\x00\x00\x00'
p5129
tp5130
Rp5131
aNatp5132
Rp5133
(dp5134
g21
S'[)'
p5135
sbsS'CA_CALIBRATION_SCALE'
p5136
g5122
sS'CA_DESC'
p5137
Nstp5138
Rp5139
s(Vcarbon_tetrachloride
p5140
VSIO2005
p5141
tp5142
g4
(g5
g6
(dp5143
S'CA_COMMENT'
p5144
NsS'CO_COMP_NAME'
p5145
g5140
sS'SYSTIME'
p5146
g4
(g11
g12
(lp5147
g14
(S'\x07\xde\x05\x01\x00\x00\x00\x00\x00\x00'
p5148
tp5149
Rp5150
aNatp5151
Rp5152
(dp5153
g21
S'[)'
p5154
sbsS'CA_CALIBRATION_SCALE'
p5155
g5141
sS'CA_DESC'
p5156
Nstp5157
Rp5158
s(Vp-cymene
p5159
VNPL
p5160
tp5161
g4
(g5
g6
(dp5162
S'CA_COMMENT'
p5163
NsS'CO_COMP_NAME'
p5164
g5159
sS'SYSTIME'
p5165
g4
(g11
g12
(lp5166
g14
(S'\x07\xde\x05\x01\x00\x00\x00\x00\x00\x00'
p5167
tp5168
Rp5169
aNatp5170
Rp5171
(dp5172
g21
S'[)'
p5173
sbsS'CA_CALIBRATION_SCALE'
p5174
g5160
sS'CA_DESC'
p5175
Nstp5176
Rp5177
s(V2-oxopropanal
p5178
VNPL
p5179
tp5180
g4
(g5
g6
(dp5181
S'CA_COMMENT'
p5182
NsS'CO_COMP_NAME'
p5183
g5178
sS'SYSTIME'
p5184
g4
(g11
g12
(lp5185
g14
(S'\x07\xde\x05\x01\x00\x00\x00\x00\x00\x00'
p5186
tp5187
Rp5188
aNatp5189
Rp5190
(dp5191
g21
S'[)'
p5192
sbsS'CA_CALIBRATION_SCALE'
p5193
g5179
sS'CA_DESC'
p5194
Nstp5195
Rp5196
s(Vbutanone
p5197
VApel Riemer
p5198
tp5199
g4
(g5
g6
(dp5200
S'CA_COMMENT'
p5201
NsS'CO_COMP_NAME'
p5202
g5197
sS'SYSTIME'
p5203
g4
(g11
g12
(lp5204
g14
(S'\x07\xe7\x02\x0f\x0e!7\x01\xaaP'
p5205
tp5206
Rp5207
aNatp5208
Rp5209
(dp5210
g21
S'[)'
p5211
sbsS'CA_CALIBRATION_SCALE'
p5212
g5198
sS'CA_DESC'
p5213
Nstp5214
Rp5215
s(Vstyrene
p5216
VNPL
p5217
tp5218
g4
(g5
g6
(dp5219
S'CA_COMMENT'
p5220
NsS'CO_COMP_NAME'
p5221
g5216
sS'SYSTIME'
p5222
g4
(g11
g12
(lp5223
g14
(S'\x07\xde\x05\x01\x00\x00\x00\x00\x00\x00'
p5224
tp5225
Rp5226
aNatp5227
Rp5228
(dp5229
g21
S'[)'
p5230
sbsS'CA_CALIBRATION_SCALE'
p5231
g5217
sS'CA_DESC'
p5232
Nstp5233
Rp5234
s(V2-methylpropane
p5235
VApel Riemer
p5236
tp5237
g4
(g5
g6
(dp5238
S'CA_COMMENT'
p5239
NsS'CO_COMP_NAME'
p5240
g5235
sS'SYSTIME'
p5241
g4
(g11
g12
(lp5242
g14
(S'\x07\xe7\x02\x0f\x0e!6\x0e\xe4f'
p5243
tp5244
Rp5245
aNatp5246
Rp5247
(dp5248
g21
S'[)'
p5249
sbsS'CA_CALIBRATION_SCALE'
p5250
g5236
sS'CA_DESC'
p5251
Nstp5252
Rp5253
s(Vcyclo-hexane
p5254
VNPL
p5255
tp5256
g4
(g5
g6
(dp5257
S'CA_COMMENT'
p5258
NsS'CO_COMP_NAME'
p5259
g5254
sS'SYSTIME'
p5260
g4
(g11
g12
(lp5261
g14
(S'\x07\xde\x05\x01\x00\x00\x00\x00\x00\x00'
p5262
tp5263
Rp5264
aNatp5265
Rp5266
(dp5267
g21
S'[)'
p5268
sbsS'CA_CALIBRATION_SCALE'
p5269
g5255
sS'CA_DESC'
p5270
Nstp5271
Rp5272
s(V3-buten-2-one
p5273
VNPL
p5274
tp5275
g4
(g5
g6
(dp5276
S'CA_COMMENT'
p5277
NsS'CO_COMP_NAME'
p5278
g5273
sS'SYSTIME'
p5279
g4
(g11
g12
(lp5280
g14
(S'\x07\xde\x05\x01\x00\x00\x00\x00\x00\x00'
p5281
tp5282
Rp5283
aNatp5284
Rp5285
(dp5286
g21
S'[)'
p5287
sbsS'CA_CALIBRATION_SCALE'
p5288
g5274
sS'CA_DESC'
p5289
Nstp5290
Rp5291
s(Vlimonene
p5292
VApel-Riemer
p5293
tp5294
g4
(g5
g6
(dp5295
S'CA_COMMENT'
p5296
NsS'CO_COMP_NAME'
p5297
g5292
sS'SYSTIME'
p5298
g4
(g11
g12
(lp5299
g14
(S'\x07\xe7\x02\x0f\x0e \x0c\x08\x0f\xcf'
p5300
tp5301
Rp5302
aNatp5303
Rp5304
(dp5305
g21
S'[)'
p5306
sbsS'CA_CALIBRATION_SCALE'
p5307
g5293
sS'CA_DESC'
p5308
Nstp5309
Rp5310
s(Valpha-pinene
p5311
VApel Riemer
p5312
tp5313
g4
(g5
g6
(dp5314
S'CA_COMMENT'
p5315
NsS'CO_COMP_NAME'
p5316
g5311
sS'SYSTIME'
p5317
g4
(g11
g12
(lp5318
g14
(S'\x07\xe7\x02\x0f\x0e!7\x04V\x14'
p5319
tp5320
Rp5321
aNatp5322
Rp5323
(dp5324
g21
S'[)'
p5325
sbsS'CA_CALIBRATION_SCALE'
p5326
g5312
sS'CA_DESC'
p5327
Nstp5328
Rp5329
s(Vcis-ocimene
p5330
VNPL
p5331
tp5332
g4
(g5
g6
(dp5333
S'CA_COMMENT'
p5334
NsS'CO_COMP_NAME'
p5335
g5330
sS'SYSTIME'
p5336
g4
(g11
g12
(lp5337
g14
(S'\x07\xde\x05\x01\x00\x00\x00\x00\x00\x00'
p5338
tp5339
Rp5340
aNatp5341
Rp5342
(dp5343
g21
S'[)'
p5344
sbsS'CA_CALIBRATION_SCALE'
p5345
g5331
sS'CA_DESC'
p5346
Nstp5347
Rp5348
s(Vbenzene
p5349
VSIO2005
p5350
tp5351
g4
(g5
g6
(dp5352
S'CA_COMMENT'
p5353
NsS'CO_COMP_NAME'
p5354
g5349
sS'SYSTIME'
p5355
g4
(g11
g12
(lp5356
g14
(S'\x07\xde\x05\x01\x00\x00\x00\x00\x00\x00'
p5357
tp5358
Rp5359
aNatp5360
Rp5361
(dp5362
g21
S'[)'
p5363
sbsS'CA_CALIBRATION_SCALE'
p5364
g5350
sS'CA_DESC'
p5365
Nstp5366
Rp5367
s(Vchlorobenzene
p5368
VNPL
p5369
tp5370
g4
(g5
g6
(dp5371
S'CA_COMMENT'
p5372
NsS'CO_COMP_NAME'
p5373
g5368
sS'SYSTIME'
p5374
g4
(g11
g12
(lp5375
g14
(S'\x07\xde\x05\x01\x00\x00\x00\x00\x00\x00'
p5376
tp5377
Rp5378
aNatp5379
Rp5380
(dp5381
g21
S'[)'
p5382
sbsS'CA_CALIBRATION_SCALE'
p5383
g5369
sS'CA_DESC'
p5384
Nstp5385
Rp5386
s(V2-3-dimethylbutane
p5387
VNPL
p5388
tp5389
g4
(g5
g6
(dp5390
S'CA_COMMENT'
p5391
NsS'CO_COMP_NAME'
p5392
g5387
sS'SYSTIME'
p5393
g4
(g11
g12
(lp5394
g14
(S'\x07\xde\x05\x01\x00\x00\x00\x00\x00\x00'
p5395
tp5396
Rp5397
aNatp5398
Rp5399
(dp5400
g21
S'[)'
p5401
sbsS'CA_CALIBRATION_SCALE'
p5402
g5388
sS'CA_DESC'
p5403
Nstp5404
Rp5405
s(V2-2-dimethylbutane
p5406
VApel-Riemer
p5407
tp5408
g4
(g5
g6
(dp5409
S'CA_COMMENT'
p5410
NsS'CO_COMP_NAME'
p5411
g5406
sS'SYSTIME'
p5412
g4
(g11
g12
(lp5413
g14
(S'\x07\xe7\x02\x0f\x0e \x0b\x0e\xa4\x17'
p5414
tp5415
Rp5416
aNatp5417
Rp5418
(dp5419
g21
S'[)'
p5420
sbsS'CA_CALIBRATION_SCALE'
p5421
g5407
sS'CA_DESC'
p5422
Nstp5423
Rp5424
s(V2-methylheptane
p5425
VNPL
p5426
tp5427
g4
(g5
g6
(dp5428
S'CA_COMMENT'
p5429
NsS'CO_COMP_NAME'
p5430
g5425
sS'SYSTIME'
p5431
g4
(g11
g12
(lp5432
g14
(S'\x07\xde\x05\x01\x00\x00\x00\x00\x00\x00'
p5433
tp5434
Rp5435
aNatp5436
Rp5437
(dp5438
g21
S'[)'
p5439
sbsS'CA_CALIBRATION_SCALE'
p5440
g5426
sS'CA_DESC'
p5441
Nstp5442
Rp5443
s(VHFC-23
p5444
VSIO2007
p5445
tp5446
g4
(g5
g6
(dp5447
S'CA_COMMENT'
p5448
NsS'CO_COMP_NAME'
p5449
g5444
sS'SYSTIME'
p5450
g4
(g11
g12
(lp5451
g14
(S'\x07\xde\x05\x01\x00\x00\x00\x00\x00\x00'
p5452
tp5453
Rp5454
aNatp5455
Rp5456
(dp5457
g21
S'[)'
p5458
sbsS'CA_CALIBRATION_SCALE'
p5459
g5445
sS'CA_DESC'
p5460
Nstp5461
Rp5462
s(Vcis-2-pentene
p5463
VNPL
p5464
tp5465
g4
(g5
g6
(dp5466
S'CA_COMMENT'
p5467
NsS'CO_COMP_NAME'
p5468
g5463
sS'SYSTIME'
p5469
g4
(g11
g12
(lp5470
g14
(S'\x07\xde\x05\x01\x00\x00\x00\x00\x00\x00'
p5471
tp5472
Rp5473
aNatp5474
Rp5475
(dp5476
g21
S'[)'
p5477
sbsS'CA_CALIBRATION_SCALE'
p5478
g5464
sS'CA_DESC'
p5479
Nstp5480
Rp5481
s(V1-3-butadiene
p5482
VNPL
p5483
tp5484
g4
(g5
g6
(dp5485
S'CA_COMMENT'
p5486
NsS'CO_COMP_NAME'
p5487
g5482
sS'SYSTIME'
p5488
g4
(g11
g12
(lp5489
g14
(S'\x07\xde\x05\x01\x00\x00\x00\x00\x00\x00'
p5490
tp5491
Rp5492
aNatp5493
Rp5494
(dp5495
g21
S'[)'
p5496
sbsS'CA_CALIBRATION_SCALE'
p5497
g5483
sS'CA_DESC'
p5498
Nstp5499
Rp5500
s(Vpropane
p5501
VApel-Riemer
p5502
tp5503
g4
(g5
g6
(dp5504
S'CA_COMMENT'
p5505
NsS'CO_COMP_NAME'
p5506
g5501
sS'SYSTIME'
p5507
g4
(g11
g12
(lp5508
g14
(S"\x07\xe7\x02\x0f\x0e \x0b\x0c'("
p5509
tp5510
Rp5511
aNatp5512
Rp5513
(dp5514
g21
S'[)'
p5515
sbsS'CA_CALIBRATION_SCALE'
p5516
g5502
sS'CA_DESC'
p5517
Nstp5518
Rp5519
s(Vn-butane
p5520
VNPL
p5521
tp5522
g4
(g5
g6
(dp5523
S'CA_COMMENT'
p5524
NsS'CO_COMP_NAME'
p5525
g5520
sS'SYSTIME'
p5526
g4
(g11
g12
(lp5527
g14
(S'\x07\xde\x05\x01\x00\x00\x00\x00\x00\x00'
p5528
tp5529
Rp5530
aNatp5531
Rp5532
(dp5533
g21
S'[)'
p5534
sbsS'CA_CALIBRATION_SCALE'
p5535
g5521
sS'CA_DESC'
p5536
Nstp5537
Rp5538
s(Vbromomethane
p5539
VSIO2005
p5540
tp5541
g4
(g5
g6
(dp5542
S'CA_COMMENT'
p5543
NsS'CO_COMP_NAME'
p5544
g5539
sS'SYSTIME'
p5545
g4
(g11
g12
(lp5546
g14
(S'\x07\xde\x05\x01\x00\x00\x00\x00\x00\x00'
p5547
tp5548
Rp5549
aNatp5550
Rp5551
(dp5552
g21
S'[)'
p5553
sbsS'CA_CALIBRATION_SCALE'
p5554
g5540
sS'CA_DESC'
p5555
Nstp5556
Rp5557
s(Vmass_121_organic_compounds
p5558
VNPL
p5559
tp5560
g4
(g5
g6
(dp5561
S'CA_COMMENT'
p5562
NsS'CO_COMP_NAME'
p5563
g5558
sS'SYSTIME'
p5564
g4
(g11
g12
(lp5565
g14
(S'\x07\xe9\x01\x1f\x07\x05\x1a\x0ci\x07'
p5566
tp5567
Rp5568
aNatp5569
Rp5570
(dp5571
g21
S'[)'
p5572
sbsS'CA_CALIBRATION_SCALE'
p5573
g5559
sS'CA_DESC'
p5574
Nstp5575
Rp5576
s(Vdinitrogen_monoxide
p5577
VWMO N2O X2006A
p5578
tp5579
g4
(g5
g6
(dp5580
S'CA_COMMENT'
p5581
NsS'CO_COMP_NAME'
p5582
g5577
sS'SYSTIME'
p5583
g4
(g11
g12
(lp5584
g14
(S'\x07\xde\x05\x01\x00\x00\x00\x00\x00\x00'
p5585
tp5586
Rp5587
aNatp5588
Rp5589
(dp5590
g21
S'[)'
p5591
sbsS'CA_CALIBRATION_SCALE'
p5592
g5578
sS'CA_DESC'
p5593
Nstp5594
Rp5595
s(Vmyrcene
p5596
VApel-Riemer
p5597
tp5598
g4
(g5
g6
(dp5599
S'CA_COMMENT'
p5600
NsS'CO_COMP_NAME'
p5601
g5596
sS'SYSTIME'
p5602
g4
(g11
g12
(lp5603
g14
(S'\x07\xe7\x02\x0f\x0e \x0c\x07(\x88'
p5604
tp5605
Rp5606
aNatp5607
Rp5608
(dp5609
g21
S'[)'
p5610
sbsS'CA_CALIBRATION_SCALE'
p5611
g5597
sS'CA_DESC'
p5612
Nstp5613
Rp5614
s(Vbenzaldehyde
p5615
VApel-Riemer
p5616
tp5617
g4
(g5
g6
(dp5618
S'CA_COMMENT'
p5619
NsS'CO_COMP_NAME'
p5620
g5615
sS'SYSTIME'
p5621
g4
(g11
g12
(lp5622
g14
(S'\x07\xe7\x02\x0f\x0e \x0c\x05\xd3V'
p5623
tp5624
Rp5625
aNatp5626
Rp5627
(dp5628
g21
S'[)'
p5629
sbsS'CA_CALIBRATION_SCALE'
p5630
g5616
sS'CA_DESC'
p5631
Nstp5632
Rp5633
s(Vmass_69_organic_compounds
p5634
VNPL
p5635
tp5636
g4
(g5
g6
(dp5637
S'CA_COMMENT'
p5638
NsS'CO_COMP_NAME'
p5639
g5634
sS'SYSTIME'
p5640
g4
(g11
g12
(lp5641
g14
(S'\x07\xe7\x05\t\x070)\x05\x1b\x06'
p5642
tp5643
Rp5644
aNatp5645
Rp5646
(dp5647
g21
S'[)'
p5648
sbsS'CA_CALIBRATION_SCALE'
p5649
g5635
sS'CA_DESC'
p5650
Nstp5651
Rp5652
s(Vo-xylene
p5653
VApel-Riemer
p5654
tp5655
g4
(g5
g6
(dp5656
S'CA_COMMENT'
p5657
NsS'CO_COMP_NAME'
p5658
g5653
sS'SYSTIME'
p5659
g4
(g11
g12
(lp5660
g14
(S'\x07\xe7\x02\x0f\x0e \x0c\x05aK'
p5661
tp5662
Rp5663
aNatp5664
Rp5665
(dp5666
g21
S'[)'
p5667
sbsS'CA_CALIBRATION_SCALE'
p5668
g5654
sS'CA_DESC'
p5669
Nstp5670
Rp5671
s(Vmass_57.033_organic_compounds
p5672
VNPL
p5673
tp5674
g4
(g5
g6
(dp5675
S'CA_COMMENT'
p5676
NsS'CO_COMP_NAME'
p5677
g5672
sS'SYSTIME'
p5678
g4
(g11
g12
(lp5679
g14
(S'\x07\xe9\x01\x1f\x07\x05\x1a\x0ci\x07'
p5680
tp5681
Rp5682
aNatp5683
Rp5684
(dp5685
g21
S'[)'
p5686
sbsS'CA_CALIBRATION_SCALE'
p5687
g5673
sS'CA_DESC'
p5688
Nstp5689
Rp5690
s(V3-methylhexane
p5691
VApel-Riemer
p5692
tp5693
g4
(g5
g6
(dp5694
S'CA_COMMENT'
p5695
NsS'CO_COMP_NAME'
p5696
g5691
sS'SYSTIME'
p5697
g4
(g11
g12
(lp5698
g14
(S'\x07\xe7\x02\x0f\x0e \x0c\x02\xa08'
p5699
tp5700
Rp5701
aNatp5702
Rp5703
(dp5704
g21
S'[)'
p5705
sbsS'CA_CALIBRATION_SCALE'
p5706
g5692
sS'CA_DESC'
p5707
Nstp5708
Rp5709
s(Vdibromomethane
p5710
VNOAA-2004
p5711
tp5712
g4
(g5
g6
(dp5713
S'CA_COMMENT'
p5714
NsS'CO_COMP_NAME'
p5715
g5710
sS'SYSTIME'
p5716
g4
(g11
g12
(lp5717
g14
(S'\x07\xde\x05\x01\x00\x00\x00\x00\x00\x00'
p5718
tp5719
Rp5720
aNatp5721
Rp5722
(dp5723
g21
S'[)'
p5724
sbsS'CA_CALIBRATION_SCALE'
p5725
g5711
sS'CA_DESC'
p5726
Nstp5727
Rp5728
s(V2-methylpropane
p5729
VApel-Riemer
p5730
tp5731
g4
(g5
g6
(dp5732
S'CA_COMMENT'
p5733
NsS'CO_COMP_NAME'
p5734
g5729
sS'SYSTIME'
p5735
g4
(g11
g12
(lp5736
g14
(S'\x07\xe7\x02\x0f\x0e \x0b\x0c\x88\x96'
p5737
tp5738
Rp5739
aNatp5740
Rp5741
(dp5742
g21
S'[)'
p5743
sbsS'CA_CALIBRATION_SCALE'
p5744
g5730
sS'CA_DESC'
p5745
Nstp5746
Rp5747
s(VHFC-365mfc
p5748
VSIO2014
p5749
tp5750
g4
(g5
g6
(dp5751
S'CA_COMMENT'
p5752
NsS'CO_COMP_NAME'
p5753
g5748
sS'SYSTIME'
p5754
g4
(g11
g12
(lp5755
g14
(S'\x07\xde\x05\x01\x00\x00\x00\x00\x00\x00'
p5756
tp5757
Rp5758
aNatp5759
Rp5760
(dp5761
g21
S'[)'
p5762
sbsS'CA_CALIBRATION_SCALE'
p5763
g5749
sS'CA_DESC'
p5764
Nstp5765
Rp5766
s(Visohexanes
p5767
VNPL
p5768
tp5769
g4
(g5
g6
(dp5770
S'CA_COMMENT'
p5771
NsS'CO_COMP_NAME'
p5772
g5767
sS'SYSTIME'
p5773
g4
(g11
g12
(lp5774
g14
(S'\x07\xde\x05\x01\x00\x00\x00\x00\x00\x00'
p5775
tp5776
Rp5777
aNatp5778
Rp5779
(dp5780
g21
S'[)'
p5781
sbsS'CA_CALIBRATION_SCALE'
p5782
g5768
sS'CA_DESC'
p5783
Nstp5784
Rp5785
s(V2-methyl-2-butene
p5786
VApel-Riemer
p5787
tp5788
g4
(g5
g6
(dp5789
S'CA_COMMENT'
p5790
NsS'CO_COMP_NAME'
p5791
g5786
sS'SYSTIME'
p5792
g4
(g11
g12
(lp5793
g14
(S'\x07\xe7\x02\x0f\x0e \x0b\x0ed\xb4'
p5794
tp5795
Rp5796
aNatp5797
Rp5798
(dp5799
g21
S'[)'
p5800
sbsS'CA_CALIBRATION_SCALE'
p5801
g5787
sS'CA_DESC'
p5802
Nstp5803
Rp5804
s(VHCFC-124
p5805
VNOAA-2003B
p5806
tp5807
g4
(g5
g6
(dp5808
S'CA_COMMENT'
p5809
NsS'CO_COMP_NAME'
p5810
g5805
sS'SYSTIME'
p5811
g4
(g11
g12
(lp5812
g14
(S'\x07\xde\x05\x01\x00\x00\x00\x00\x00\x00'
p5813
tp5814
Rp5815
aNatp5816
Rp5817
(dp5818
g21
S'[)'
p5819
sbsS'CA_CALIBRATION_SCALE'
p5820
g5806
sS'CA_DESC'
p5821
Nstp5822
Rp5823
s(Vchloromethane
p5824
VSIO2005
p5825
tp5826
g4
(g5
g6
(dp5827
S'CA_COMMENT'
p5828
NsS'CO_COMP_NAME'
p5829
g5824
sS'SYSTIME'
p5830
g4
(g11
g12
(lp5831
g14
(S'\x07\xde\x05\x01\x00\x00\x00\x00\x00\x00'
p5832
tp5833
Rp5834
aNatp5835
Rp5836
(dp5837
g21
S'[)'
p5838
sbsS'CA_CALIBRATION_SCALE'
p5839
g5825
sS'CA_DESC'
p5840
Nstp5841
Rp5842
s(VHFC-32
p5843
VSIO2007
p5844
tp5845
g4
(g5
g6
(dp5846
S'CA_COMMENT'
p5847
NsS'CO_COMP_NAME'
p5848
g5843
sS'SYSTIME'
p5849
g4
(g11
g12
(lp5850
g14
(S'\x07\xde\x05\x01\x00\x00\x00\x00\x00\x00'
p5851
tp5852
Rp5853
aNatp5854
Rp5855
(dp5856
g21
S'[)'
p5857
sbsS'CA_CALIBRATION_SCALE'
p5858
g5844
sS'CA_DESC'
p5859
Nstp5860
Rp5861
s(V1-hexene
p5862
VNPL
p5863
tp5864
g4
(g5
g6
(dp5865
S'CA_COMMENT'
p5866
NsS'CO_COMP_NAME'
p5867
g5862
sS'SYSTIME'
p5868
g4
(g11
g12
(lp5869
g14
(S'\x07\xde\x05\x01\x00\x00\x00\x00\x00\x00'
p5870
tp5871
Rp5872
aNatp5873
Rp5874
(dp5875
g21
S'[)'
p5876
sbsS'CA_CALIBRATION_SCALE'
p5877
g5863
sS'CA_DESC'
p5878
Nstp5879
Rp5880
s(VHCFC-141b
p5881
VSIO2005
p5882
tp5883
g4
(g5
g6
(dp5884
S'CA_COMMENT'
p5885
NsS'CO_COMP_NAME'
p5886
g5881
sS'SYSTIME'
p5887
g4
(g11
g12
(lp5888
g14
(S'\x07\xde\x05\x01\x00\x00\x00\x00\x00\x00'
p5889
tp5890
Rp5891
aNatp5892
Rp5893
(dp5894
g21
S'[)'
p5895
sbsS'CA_CALIBRATION_SCALE'
p5896
g5882
sS'CA_DESC'
p5897
Nstp5898
Rp5899
s(Vn-decane
p5900
VApel-Riemer
p5901
tp5902
g4
(g5
g6
(dp5903
S'CA_COMMENT'
p5904
NsS'CO_COMP_NAME'
p5905
g5900
sS'SYSTIME'
p5906
g4
(g11
g12
(lp5907
g14
(S'\x07\xe7\x02\x0f\x0e \x0c\x07]%'
p5908
tp5909
Rp5910
aNatp5911
Rp5912
(dp5913
g21
S'[)'
p5914
sbsS'CA_CALIBRATION_SCALE'
p5915
g5901
sS'CA_DESC'
p5916
Nstp5917
Rp5918
s(Vcyclo-pentane
p5919
VNPL
p5920
tp5921
g4
(g5
g6
(dp5922
S'CA_COMMENT'
p5923
NsS'CO_COMP_NAME'
p5924
g5919
sS'SYSTIME'
p5925
g4
(g11
g12
(lp5926
g14
(S'\x07\xde\x05\x01\x00\x00\x00\x00\x00\x00'
p5927
tp5928
Rp5929
aNatp5930
Rp5931
(dp5932
g21
S'[)'
p5933
sbsS'CA_CALIBRATION_SCALE'
p5934
g5920
sS'CA_DESC'
p5935
Nstp5936
Rp5937
s(VH-1211
p5938
VSIO2005
p5939
tp5940
g4
(g5
g6
(dp5941
S'CA_COMMENT'
p5942
NsS'CO_COMP_NAME'
p5943
g5938
sS'SYSTIME'
p5944
g4
(g11
g12
(lp5945
g14
(S'\x07\xde\x05\x01\x00\x00\x00\x00\x00\x00'
p5946
tp5947
Rp5948
aNatp5949
Rp5950
(dp5951
g21
S'[)'
p5952
sbsS'CA_CALIBRATION_SCALE'
p5953
g5939
sS'CA_DESC'
p5954
Nstp5955
Rp5956
s(V2-propanol
p5957
VApel-Riemer
p5958
tp5959
g4
(g5
g6
(dp5960
S'CA_COMMENT'
p5961
NsS'CO_COMP_NAME'
p5962
g5957
sS'SYSTIME'
p5963
g4
(g11
g12
(lp5964
g14
(S'\x07\xe7\x02\x0f\x0e \x0b\r\xb2\xdd'
p5965
tp5966
Rp5967
aNatp5968
Rp5969
(dp5970
g21
S'[)'
p5971
sbsS'CA_CALIBRATION_SCALE'
p5972
g5958
sS'CA_DESC'
p5973
Nstp5974
Rp5975
s(Vn-heptane
p5976
VApel-Riemer
p5977
tp5978
g4
(g5
g6
(dp5979
S'CA_COMMENT'
p5980
NsS'CO_COMP_NAME'
p5981
g5976
sS'SYSTIME'
p5982
g4
(g11
g12
(lp5983
g14
(S'\x07\xe7\x02\x0f\x0e \x0c\x03?I'
p5984
tp5985
Rp5986
aNatp5987
Rp5988
(dp5989
g21
S'[)'
p5990
sbsS'CA_CALIBRATION_SCALE'
p5991
g5977
sS'CA_DESC'
p5992
Nstp5993
Rp5994
s(Vethyne
p5995
VApel-Riemer
p5996
tp5997
g4
(g5
g6
(dp5998
S'CA_COMMENT'
p5999
NsS'CO_COMP_NAME'
p6000
g5995
sS'SYSTIME'
p6001
g4
(g11
g12
(lp6002
g14
(S'\x07\xe7\x02\x0f\x0e \x0b\x0bq\x9f'
p6003
tp6004
Rp6005
aNatp6006
Rp6007
(dp6008
g21
S'[)'
p6009
sbsS'CA_CALIBRATION_SCALE'
p6010
g5996
sS'CA_DESC'
p6011
Nstp6012
Rp6013
s(Vmass_93_organic_compounds
p6014
VNPL
p6015
tp6016
g4
(g5
g6
(dp6017
S'CA_COMMENT'
p6018
NsS'CO_COMP_NAME'
p6019
g6014
sS'SYSTIME'
p6020
g4
(g11
g12
(lp6021
g14
(S'\x07\xe9\x01\x1f\x07\x05\x1a\x0ci\x07'
p6022
tp6023
Rp6024
aNatp6025
Rp6026
(dp6027
g21
S'[)'
p6028
sbsS'CA_CALIBRATION_SCALE'
p6029
g6015
sS'CA_DESC'
p6030
Nstp6031
Rp6032
s(V1-ethyl-3-methylbenzene
p6033
VNPL
p6034
tp6035
g4
(g5
g6
(dp6036
S'CA_COMMENT'
p6037
NsS'CO_COMP_NAME'
p6038
g6033
sS'SYSTIME'
p6039
g4
(g11
g12
(lp6040
g14
(S'\x07\xde\x05\x01\x00\x00\x00\x00\x00\x00'
p6041
tp6042
Rp6043
aNatp6044
Rp6045
(dp6046
g21
S'[)'
p6047
sbsS'CA_CALIBRATION_SCALE'
p6048
g6034
sS'CA_DESC'
p6049
Nstp6050
Rp6051
s(Vmethyl-cyclohexane
p6052
VApel Riemer
p6053
tp6054
g4
(g5
g6
(dp6055
S'CA_COMMENT'
p6056
NsS'CO_COMP_NAME'
p6057
g6052
sS'SYSTIME'
p6058
g4
(g11
g12
(lp6059
g14
(S'\x07\xe7\x02\x0f\x0e!7\x03\x18\xae'
p6060
tp6061
Rp6062
aNatp6063
Rp6064
(dp6065
g21
S'[)'
p6066
sbsS'CA_CALIBRATION_SCALE'
p6067
g6053
sS'CA_DESC'
p6068
Nstp6069
Rp6070
s(V3-methylpentane
p6071
VNPL
p6072
tp6073
g4
(g5
g6
(dp6074
S'CA_COMMENT'
p6075
NsS'CO_COMP_NAME'
p6076
g6071
sS'SYSTIME'
p6077
g4
(g11
g12
(lp6078
g14
(S'\x07\xde\x05\x01\x00\x00\x00\x00\x00\x00'
p6079
tp6080
Rp6081
aNatp6082
Rp6083
(dp6084
g21
S'[)'
p6085
sbsS'CA_CALIBRATION_SCALE'
p6086
g6072
sS'CA_DESC'
p6087
Nstp6088
Rp6089
s(VH-1301
p6090
VSIO2005
p6091
tp6092
g4
(g5
g6
(dp6093
S'CA_COMMENT'
p6094
NsS'CO_COMP_NAME'
p6095
g6090
sS'SYSTIME'
p6096
g4
(g11
g12
(lp6097
g14
(S'\x07\xde\x05\x01\x00\x00\x00\x00\x00\x00'
p6098
tp6099
Rp6100
aNatp6101
Rp6102
(dp6103
g21
S'[)'
p6104
sbsS'CA_CALIBRATION_SCALE'
p6105
g6091
sS'CA_DESC'
p6106
Nstp6107
Rp6108
s(Vn-nonane
p6109
VApel Riemer
p6110
tp6111
g4
(g5
g6
(dp6112
S'CA_COMMENT'
p6113
NsS'CO_COMP_NAME'
p6114
g6109
sS'SYSTIME'
p6115
g4
(g11
g12
(lp6116
g14
(S'\x07\xe7\x02\x0f\x0e!7\x04\x1ak'
p6117
tp6118
Rp6119
aNatp6120
Rp6121
(dp6122
g21
S'[)'
p6123
sbsS'CA_CALIBRATION_SCALE'
p6124
g6110
sS'CA_DESC'
p6125
Nstp6126
Rp6127
s(Vmyrcene
p6128
VNPL
p6129
tp6130
g4
(g5
g6
(dp6131
S'CA_COMMENT'
p6132
NsS'CO_COMP_NAME'
p6133
g6128
sS'SYSTIME'
p6134
g4
(g11
g12
(lp6135
g14
(S'\x07\xde\x05\x01\x00\x00\x00\x00\x00\x00'
p6136
tp6137
Rp6138
aNatp6139
Rp6140
(dp6141
g21
S'[)'
p6142
sbsS'CA_CALIBRATION_SCALE'
p6143
g6129
sS'CA_DESC'
p6144
Nstp6145
Rp6146
s(Vethane
p6147
VSIO-p
p6148
tp6149
g4
(g5
g6
(dp6150
S'CA_COMMENT'
p6151
NsS'CO_COMP_NAME'
p6152
g6147
sS'SYSTIME'
p6153
g4
(g11
g12
(lp6154
g14
(S'\x07\xde\x05\x01\x00\x00\x00\x00\x00\x00'
p6155
tp6156
Rp6157
aNatp6158
Rp6159
(dp6160
g21
S'[)'
p6161
sbsS'CA_CALIBRATION_SCALE'
p6162
g6148
sS'CA_DESC'
p6163
Nstp6164
Rp6165
s(V1-pentene
p6166
VNPL
p6167
tp6168
g4
(g5
g6
(dp6169
S'CA_COMMENT'
p6170
NsS'CO_COMP_NAME'
p6171
g6166
sS'SYSTIME'
p6172
g4
(g11
g12
(lp6173
g14
(S'\x07\xde\x05\x01\x00\x00\x00\x00\x00\x00'
p6174
tp6175
Rp6176
aNatp6177
Rp6178
(dp6179
g21
S'[)'
p6180
sbsS'CA_CALIBRATION_SCALE'
p6181
g6167
sS'CA_DESC'
p6182
Nstp6183
Rp6184
s(Vacetonitrile
p6185
VNPL
p6186
tp6187
g4
(g5
g6
(dp6188
S'CA_COMMENT'
p6189
NsS'CO_COMP_NAME'
p6190
g6185
sS'SYSTIME'
p6191
g4
(g11
g12
(lp6192
g14
(S'\x07\xde\x05\x01\x00\x00\x00\x00\x00\x00'
p6193
tp6194
Rp6195
aNatp6196
Rp6197
(dp6198
g21
S'[)'
p6199
sbsS'CA_CALIBRATION_SCALE'
p6200
g6186
sS'CA_DESC'
p6201
Nstp6202
Rp6203
s(Vbutanales
p6204
VNPL
p6205
tp6206
g4
(g5
g6
(dp6207
S'CA_COMMENT'
p6208
NsS'CO_COMP_NAME'
p6209
g6204
sS'SYSTIME'
p6210
g4
(g11
g12
(lp6211
g14
(S'\x07\xde\x05\x01\x00\x00\x00\x00\x00\x00'
p6212
tp6213
Rp6214
aNatp6215
Rp6216
(dp6217
g21
S'[)'
p6218
sbsS'CA_CALIBRATION_SCALE'
p6219
g6205
sS'CA_DESC'
p6220
Nstp6221
Rp6222
s(Vbromoform
p6223
VNOAA-2003
p6224
tp6225
g4
(g5
g6
(dp6226
S'CA_COMMENT'
p6227
NsS'CO_COMP_NAME'
p6228
g6223
sS'SYSTIME'
p6229
g4
(g11
g12
(lp6230
g14
(S'\x07\xde\x05\x01\x00\x00\x00\x00\x00\x00'
p6231
tp6232
Rp6233
aNatp6234
Rp6235
(dp6236
g21
S'[)'
p6237
sbsS'CA_CALIBRATION_SCALE'
p6238
g6224
sS'CA_DESC'
p6239
Nstp6240
Rp6241
s(Vpentanal
p6242
VApel-Riemer
p6243
tp6244
g4
(g5
g6
(dp6245
S'CA_COMMENT'
p6246
NsS'CO_COMP_NAME'
p6247
g6242
sS'SYSTIME'
p6248
g4
(g11
g12
(lp6249
g14
(S'\x07\xe7\x02\x0f\x0e \x0c\x02\xd6\xbd'
p6250
tp6251
Rp6252
aNatp6253
Rp6254
(dp6255
g21
S'[)'
p6256
sbsS'CA_CALIBRATION_SCALE'
p6257
g6243
sS'CA_DESC'
p6258
Nstp6259
Rp6260
s(V2-2-3-trimethylbutane
p6261
VNPL
p6262
tp6263
g4
(g5
g6
(dp6264
S'CA_COMMENT'
p6265
NsS'CO_COMP_NAME'
p6266
g6261
sS'SYSTIME'
p6267
g4
(g11
g12
(lp6268
g14
(S'\x07\xde\x05\x01\x00\x00\x00\x00\x00\x00'
p6269
tp6270
Rp6271
aNatp6272
Rp6273
(dp6274
g21
S'[)'
p6275
sbsS'CA_CALIBRATION_SCALE'
p6276
g6262
sS'CA_DESC'
p6277
Nstp6278
Rp6279
s(Vp-xylene
p6280
VNPL
p6281
tp6282
g4
(g5
g6
(dp6283
S'CA_COMMENT'
p6284
NsS'CO_COMP_NAME'
p6285
g6280
sS'SYSTIME'
p6286
g4
(g11
g12
(lp6287
g14
(S'\x07\xe7\x08\x1c\x0c\x08\x04\r\x98\xcf'
p6288
tp6289
Rp6290
aNatp6291
Rp6292
(dp6293
g21
S'[)'
p6294
sbsS'CA_CALIBRATION_SCALE'
p6295
g6281
sS'CA_DESC'
p6296
Nstp6297
Rp6298
s(Vethane
p6299
VSIO2005
p6300
tp6301
g4
(g5
g6
(dp6302
S'CA_COMMENT'
p6303
NsS'CO_COMP_NAME'
p6304
g6299
sS'SYSTIME'
p6305
g4
(g11
g12
(lp6306
g14
(S'\x07\xde\x05\x01\x00\x00\x00\x00\x00\x00'
p6307
tp6308
Rp6309
aNatp6310
Rp6311
(dp6312
g21
S'[)'
p6313
sbsS'CA_CALIBRATION_SCALE'
p6314
g6300
sS'CA_DESC'
p6315
Nstp6316
Rp6317
s(Vmass_57_organic_compounds
p6318
VNPL
p6319
tp6320
g4
(g5
g6
(dp6321
S'CA_COMMENT'
p6322
NsS'CO_COMP_NAME'
p6323
g6318
sS'SYSTIME'
p6324
g4
(g11
g12
(lp6325
g14
(S'\x07\xe9\x01\x1f\x07\x05\x1a\x0ci\x07'
p6326
tp6327
Rp6328
aNatp6329
Rp6330
(dp6331
g21
S'[)'
p6332
sbsS'CA_CALIBRATION_SCALE'
p6333
g6319
sS'CA_DESC'
p6334
Nstp6335
Rp6336
s(Vethylbenzene
p6337
VApel Riemer
p6338
tp6339
g4
(g5
g6
(dp6340
S'CA_COMMENT'
p6341
NsS'CO_COMP_NAME'
p6342
g6337
sS'SYSTIME'
p6343
g4
(g11
g12
(lp6344
g14
(S'\x07\xe7\x02\x0f\x0e!7\x03\xab\x8c'
p6345
tp6346
Rp6347
aNatp6348
Rp6349
(dp6350
g21
S'[)'
p6351
sbsS'CA_CALIBRATION_SCALE'
p6352
g6338
sS'CA_DESC'
p6353
Nstp6354
Rp6355
s(V2-methylpropene
p6356
VNPL
p6357
tp6358
g4
(g5
g6
(dp6359
S'CA_COMMENT'
p6360
NsS'CO_COMP_NAME'
p6361
g6356
sS'SYSTIME'
p6362
g4
(g11
g12
(lp6363
g14
(S'\x07\xde\x05\x01\x00\x00\x00\x00\x00\x00'
p6364
tp6365
Rp6366
aNatp6367
Rp6368
(dp6369
g21
S'[)'
p6370
sbsS'CA_CALIBRATION_SCALE'
p6371
g6357
sS'CA_DESC'
p6372
Nstp6373
Rp6374
s(Vmass_93.091_organic_compounds
p6375
VNPL
p6376
tp6377
g4
(g5
g6
(dp6378
S'CA_COMMENT'
p6379
NsS'CO_COMP_NAME'
p6380
g6375
sS'SYSTIME'
p6381
g4
(g11
g12
(lp6382
g14
(S'\x07\xe9\x01\x1f\x07\x05\x1a\x0ci\x07'
p6383
tp6384
Rp6385
aNatp6386
Rp6387
(dp6388
g21
S'[)'
p6389
sbsS'CA_CALIBRATION_SCALE'
p6390
g6376
sS'CA_DESC'
p6391
Nstp6392
Rp6393
s(Vn-octane
p6394
VApel Riemer
p6395
tp6396
g4
(g5
g6
(dp6397
S'CA_COMMENT'
p6398
NsS'CO_COMP_NAME'
p6399
g6394
sS'SYSTIME'
p6400
g4
(g11
g12
(lp6401
g14
(S'\x07\xe7\x02\x0f\x0e!7\x03\x88t'
p6402
tp6403
Rp6404
aNatp6405
Rp6406
(dp6407
g21
S'[)'
p6408
sbsS'CA_CALIBRATION_SCALE'
p6409
g6395
sS'CA_DESC'
p6410
Nstp6411
Rp6412
s(V1-2-3-trimethylbenzene
p6413
VNPL
p6414
tp6415
g4
(g5
g6
(dp6416
S'CA_COMMENT'
p6417
NsS'CO_COMP_NAME'
p6418
g6413
sS'SYSTIME'
p6419
g4
(g11
g12
(lp6420
g14
(S'\x07\xde\x05\x01\x00\x00\x00\x00\x00\x00'
p6421
tp6422
Rp6423
aNatp6424
Rp6425
(dp6426
g21
S'[)'
p6427
sbsS'CA_CALIBRATION_SCALE'
p6428
g6414
sS'CA_DESC'
p6429
Nstp6430
Rp6431
s.