(dp0
VIMPROVE
p1
ccopy_reg
_reconstructor
p2
(cnilutility.datatypes
DataObject
p3
c__builtin__
dict
p4
(dp5
S'PR_HOMEPAGE_URL'
p6
NsS'PS_ID'
p7
I8633
sS'OPEN_ACCESS'
p8
I00
sS'PR_DESC'
p9
Vhttp://vista.cira.colostate.edu/improve/Publications/OtherDocs/IMPROVEDataGuide/IMPROVEDataGuide.htm
p10
sS'PR_STARTDATE'
p11
cdatetime
datetime
p12
(S'\x07\xd9\x02\x0f\x00\x00\x00\x00\x00\x00'
p13
tp14
Rp15
sS'PR_ENDDATE'
p16
NsS'PR_ACRONYM'
p17
g1
sS'SYSTIME'
p18
g2
(cnilutility.datetime_helper
DatetimeInterval
p19
c__builtin__
list
p20
(lp21
g12
(S'\x07\xde\x05\x01\x00\x00\x00\x00\x00\x00'
p22
tp23
Rp24
aNatp25
Rp26
(dp27
S'bounds'
p28
S'[)'
p29
sbsS'PR_NAME'
p30
VIMPROVE
p31
sS'PR_DATAPOLICY'
p32
NsS'PR_COMMENT'
p33
Nstp34
Rp35
sVWDCRG_legacy
p36
g2
(g3
g4
(dp37
S'PR_HOMEPAGE_URL'
p38
NsS'PS_ID'
p39
I1390
sS'OPEN_ACCESS'
p40
I00
sS'PR_DESC'
p41
VWDCRG legacy data converted from WDCGG, content is locked and data not available
p42
sS'PR_STARTDATE'
p43
g12
(S'\x07\xe4\n\x02\x00\x00\x00\x00\x00\x00'
p44
tp45
Rp46
sS'PR_ENDDATE'
p47
NsS'PR_ACRONYM'
p48
g36
sS'SYSTIME'
p49
g2
(g19
g20
(lp50
g12
(S'\x07\xde\x05\x01\x00\x00\x00\x00\x00\x00'
p51
tp52
Rp53
aNatp54
Rp55
(dp56
g28
S'[)'
p57
sbsS'PR_NAME'
p58
VWDCRG legacy data
p59
sS'PR_DATAPOLICY'
p60
NsS'PR_COMMENT'
p61
Nstp62
Rp63
sVCAMPAIGN
p64
g2
(g3
g4
(dp65
S'PR_HOMEPAGE_URL'
p66
NsS'PS_ID'
p67
I6555
sS'OPEN_ACCESS'
p68
I00
sS'PR_DESC'
p69
NsS'PR_STARTDATE'
p70
g12
(S'\x07\xd2\x07\x01\x00\x00\x00\x00\x00\x00'
p71
tp72
Rp73
sS'PR_ENDDATE'
p74
NsS'PR_ACRONYM'
p75
g64
sS'SYSTIME'
p76
g2
(g19
g20
(lp77
g12
(S'\x07\xde\x05\x01\x00\x00\x00\x00\x00\x00'
p78
tp79
Rp80
aNatp81
Rp82
(dp83
g28
S'[)'
p84
sbsS'PR_NAME'
p85
NsS'PR_DATAPOLICY'
p86
VFor scientific purposes, access to the data is limited. Data will be given access to after approval from the data producer or owner.
p87
sS'PR_COMMENT'
p88
Nstp89
Rp90
sVGUAN
p91
g2
(g3
g4
(dp92
S'PR_HOMEPAGE_URL'
p93
Vhttp://wiki.tropos.de/index.php/GUAN
p94
sS'PS_ID'
p95
I13767
sS'OPEN_ACCESS'
p96
I01
sS'PR_DESC'
p97
VGUAN is a joint observation network, which aims to improve our understanding of atmospheric aerosol particles with regard to human particle exposure and aerosol climate effects.
p98
sS'PR_STARTDATE'
p99
g12
(S'\x07\xdd\x01\x1f\x130 \x00\x00\x00'
p100
tp101
Rp102
sS'PR_ENDDATE'
p103
NsS'PR_ACRONYM'
p104
g91
sS'SYSTIME'
p105
g2
(g19
g20
(lp106
g12
(S'\x07\xde\x05\x01\x00\x00\x00\x00\x00\x00'
p107
tp108
Rp109
aNatp110
Rp111
(dp112
g28
S'[)'
p113
sbsS'PR_NAME'
p114
VGerman Ultrafine Aerosol Networ
p115
sS'PR_DATAPOLICY'
p116
Vhttp://actris.nilu.no/Content/Documents/DataPolicy.pdf
p117
sS'PR_COMMENT'
p118
Nstp119
Rp120
sVMOCA
p121
g2
(g3
g4
(dp122
S'PR_HOMEPAGE_URL'
p123
Vhttp://moca.nilu.no
p124
sS'PS_ID'
p125
I9744
sS'OPEN_ACCESS'
p126
I00
sS'PR_DESC'
p127
VMOCA is a project funded by the Norwegian Research Council that will apply advanced measurements and modelling to quantify the amount and present atmospheric impact of CH4 originating from MH.
p128
sS'PR_STARTDATE'
p129
g12
(S'\x07\xde\x01\x01\x00\x00\x00\x00\x00\x00'
p130
tp131
Rp132
sS'PR_ENDDATE'
p133
NsS'PR_ACRONYM'
p134
g121
sS'SYSTIME'
p135
g2
(g19
g20
(lp136
g12
(S'\x07\xde\x05\x01\x00\x00\x00\x00\x00\x00'
p137
tp138
Rp139
aNatp140
Rp141
(dp142
g28
S'[)'
p143
sbsS'PR_NAME'
p144
VMethane emissions from the Arctic OCean to the Atmosphere
p145
sS'PR_DATAPOLICY'
p146
VFor scientific purposes, access to MOCA data is unlimited but by their use you accept that an offer of co-authorship will be made through personal contact with the data producer or owner.
p147
sS'PR_COMMENT'
p148
Nstp149
Rp150
sVNILU_NRT_internal
p151
g2
(g3
g4
(dp152
S'PR_HOMEPAGE_URL'
p153
NsS'PS_ID'
p154
I6555
sS'OPEN_ACCESS'
p155
I00
sS'PR_DESC'
p156
VNILU internal NRT data, password protected, not visible to outside (mostly for setup phase and tests)
p157
sS'PR_STARTDATE'
p158
g12
(S'\x07\xdd\x01\x01\x00\x00\x00\x00\x00\x00'
p159
tp160
Rp161
sS'PR_ENDDATE'
p162
NsS'PR_ACRONYM'
p163
g151
sS'SYSTIME'
p164
g2
(g19
g20
(lp165
g12
(S'\x07\xde\x05\x01\x00\x00\x00\x00\x00\x00'
p166
tp167
Rp168
aNatp169
Rp170
(dp171
g28
S'[)'
p172
sbsS'PR_NAME'
p173
VNILU NRT internal
p174
sS'PR_DATAPOLICY'
p175
NsS'PR_COMMENT'
p176
Nstp177
Rp178
sVEUSAAR_preliminary
p179
g2
(g3
g4
(dp180
S'PR_HOMEPAGE_URL'
p181
Vhttp://www.eusaar.net
p182
sS'PS_ID'
p183
I13767
sS'OPEN_ACCESS'
p184
I00
sS'PR_DESC'
p185
VIntegration of measurements of atmospheric aerosol properties performed in a distributed network of 20 high quality European ground-based stations in support of policy issues on air quality, long-range transport of pollutants and climate change.
p186
sS'PR_STARTDATE'
p187
g12
(S'\x07\xd8\n\t\x14\r8\x00\x9c@'
p188
tp189
Rp190
sS'PR_ENDDATE'
p191
NsS'PR_ACRONYM'
p192
g179
sS'SYSTIME'
p193
g2
(g19
g20
(lp194
g12
(S'\x07\xde\x05\x01\x00\x00\x00\x00\x00\x00'
p195
tp196
Rp197
aNatp198
Rp199
(dp200
g28
S'[)'
p201
sbsS'PR_NAME'
p202
VPreliminary data submissions for European Supersites for Atmospheric Aerosol Research
p203
sS'PR_DATAPOLICY'
p204
Vhttp://www.eusaar.net/files/data/data_protocol.cfm
p205
sS'PR_COMMENT'
p206
Nstp207
Rp208
sVNILU_NRT
p209
g2
(g3
g4
(dp210
S'PR_HOMEPAGE_URL'
p211
Vhttp://www.nilu.no
p212
sS'PS_ID'
p213
I1195
sS'OPEN_ACCESS'
p214
I01
sS'PR_DESC'
p215
VAtmospheric measuremnts produced at NILU.
p216
sS'PR_STARTDATE'
p217
g12
(S'\x07\xd9\x01\x01\x00\x00\x00\x00\x00\x00'
p218
tp219
Rp220
sS'PR_ENDDATE'
p221
NsS'PR_ACRONYM'
p222
g209
sS'SYSTIME'
p223
g2
(g19
g20
(lp224
g12
(S'\x07\xde\x05\x01\x00\x00\x00\x00\x00\x00'
p225
tp226
Rp227
aNatp228
Rp229
(dp230
g28
S'[)'
p231
sbsS'PR_NAME'
p232
VNear Realtime Data from Norwegian Institute for Air Research
p233
sS'PR_DATAPOLICY'
p234
VData can not be published without specific agreement from NILU.
p235
sS'PR_COMMENT'
p236
Nstp237
Rp238
sVAMAP
p239
g2
(g3
g4
(dp240
S'PR_HOMEPAGE_URL'
p241
NsS'PS_ID'
p242
I6555
sS'OPEN_ACCESS'
p243
I00
sS'PR_DESC'
p244
NsS'PR_STARTDATE'
p245
g12
(S'\x07\xbc\x01\x01\x00\x00\x00\x00\x00\x00'
p246
tp247
Rp248
sS'PR_ENDDATE'
p249
NsS'PR_ACRONYM'
p250
g239
sS'SYSTIME'
p251
g2
(g19
g20
(lp252
g12
(S'\x07\xde\x05\x01\x00\x00\x00\x00\x00\x00'
p253
tp254
Rp255
aNatp256
Rp257
(dp258
g28
S'[)'
p259
sbsS'PR_NAME'
p260
NsS'PR_DATAPOLICY'
p261
VFor scientific purposes, access to the AMAP data is unlimited but by their use you accept that an offer of co-authorship will be made through personal contact with the data producer or owner.
p262
sS'PR_COMMENT'
p263
Nstp264
Rp265
sVCARIBIC-GEOmon
p266
g2
(g3
g4
(dp267
S'PR_HOMEPAGE_URL'
p268
NsS'PS_ID'
p269
I1195
sS'OPEN_ACCESS'
p270
I00
sS'PR_DESC'
p271
NsS'PR_STARTDATE'
p272
g12
(S'\x07\xda\x01\x19\x0b\x1e \nT\x88'
p273
tp274
Rp275
sS'PR_ENDDATE'
p276
NsS'PR_ACRONYM'
p277
g266
sS'SYSTIME'
p278
g2
(g19
g20
(lp279
g12
(S'\x07\xde\x05\x01\x00\x00\x00\x00\x00\x00'
p280
tp281
Rp282
aNatp283
Rp284
(dp285
g28
S'[)'
p286
sbsS'PR_NAME'
p287
NsS'PR_DATAPOLICY'
p288
VThese data should preferrably be accessed through http://www.iagos-data.fr/. The data in EBAS were reported due to obligations in a past EU-project, and is likely not anymore the best representation of these resources.
p289
sS'PR_COMMENT'
p290
Nstp291
Rp292
sVGAW-WDCRG_NRT
p293
g2
(g3
g4
(dp294
S'PR_HOMEPAGE_URL'
p295
Vhttp://www.gaw-wdcrg.org
p296
sS'PS_ID'
p297
I1195
sS'OPEN_ACCESS'
p298
I00
sS'PR_DESC'
p299
VThe World Data Centre for Reactive Gases is the data repository and archive for reactive gases of the World Meteorological Organisation's (WMO) Global Atmosphere Watch (GAW) programme.
p300
sS'PR_STARTDATE'
p301
g12
(S'\x07\xe0\x01\x01\x00\x00\x00\x00\x00\x00'
p302
tp303
Rp304
sS'PR_ENDDATE'
p305
NsS'PR_ACRONYM'
p306
g293
sS'SYSTIME'
p307
g2
(g19
g20
(lp308
g12
(S'\x07\xde\x05\x01\x00\x00\x00\x00\x00\x00'
p309
tp310
Rp311
aNatp312
Rp313
(dp314
g28
S'[)'
p315
sbsS'PR_NAME'
p316
VNear Realtime Data for World Data Centre for Reactive Gases
p317
sS'PR_DATAPOLICY'
p318
NsS'PR_COMMENT'
p319
Nstp320
Rp321
sVUnderRevision
p322
g2
(g3
g4
(dp323
S'PR_HOMEPAGE_URL'
p324
NsS'PS_ID'
p325
I8633
sS'OPEN_ACCESS'
p326
I00
sS'PR_DESC'
p327
VData under revision, content is locked and data not available until resubmission
p328
sS'PR_STARTDATE'
p329
g12
(S"\x07\xe3\x02\x0b\x0f'6\x03\xd0\x90"
p330
tp331
Rp332
sS'PR_ENDDATE'
p333
NsS'PR_ACRONYM'
p334
g322
sS'SYSTIME'
p335
g2
(g19
g20
(lp336
g12
(S'\x07\xde\x05\x01\x00\x00\x00\x00\x00\x00'
p337
tp338
Rp339
aNatp340
Rp341
(dp342
g28
S'[)'
p343
sbsS'PR_NAME'
p344
VData under revision
p345
sS'PR_DATAPOLICY'
p346
NsS'PR_COMMENT'
p347
Nstp348
Rp349
sVACTRIS_preliminary
p350
g2
(g3
g4
(dp351
S'PR_HOMEPAGE_URL'
p352
Vhttp://www.actris.eu
p353
sS'PS_ID'
p354
I9744
sS'OPEN_ACCESS'
p355
I00
sS'PR_DESC'
p356
VACTRIS is the European Research Infrastructure for the observation of Aerosol, Clouds, and Trace gases. ACTRIS is composed of observing stations, exploratory platforms, instruments calibration centres, and a data centre.
p357
sS'PR_STARTDATE'
p358
g12
(S'\x07\xdc\x01\x01\x00\x00\x00\x00\x00\x00'
p359
tp360
Rp361
sS'PR_ENDDATE'
p362
NsS'PR_ACRONYM'
p363
g350
sS'SYSTIME'
p364
g2
(g19
g20
(lp365
g12
(S'\x07\xde\x05\x01\x00\x00\x00\x00\x00\x00'
p366
tp367
Rp368
aNatp369
Rp370
(dp371
g28
S'[)'
p372
sbsS'PR_NAME'
p373
VPreliminary data submissions for European Research Infrastructure for the observation of Aerosol, Clouds, and Trace gases
p374
sS'PR_DATAPOLICY'
p375
Vhttp://actris.nilu.no/Content/Documents/DataPolicy.pdf
p376
sS'PR_COMMENT'
p377
Nstp378
Rp379
sVNOAA-GGGRN
p380
g2
(g3
g4
(dp381
S'PR_HOMEPAGE_URL'
p382
Vhttps://esrl.noaa.gov/gmd/ccgg/ggrn.php
p383
sS'PS_ID'
p384
I8633
sS'OPEN_ACCESS'
p385
I00
sS'PR_DESC'
p386
VThe Global Greenhouse Gas Reference Network measures the atmospheric distribution and trends of the three main long-term drivers of climate change, carbon dioxide (CO2), methane (CH4), and nitrous oxide (N2O), as well as carbon monoxide (CO) which is an i
p387
sS'PR_STARTDATE'
p388
g12
(S'\x07\xe5\x01\x01\x00\x00\x00\x00\x00\x00'
p389
tp390
Rp391
sS'PR_ENDDATE'
p392
NsS'PR_ACRONYM'
p393
g380
sS'SYSTIME'
p394
g2
(g19
g20
(lp395
g12
(S'\x07\xde\x05\x01\x00\x00\x00\x00\x00\x00'
p396
tp397
Rp398
aNatp399
Rp400
(dp401
g28
S'[)'
p402
sbsS'PR_NAME'
p403
VNOAA Global Greenhouse Gas Reference Network
p404
sS'PR_DATAPOLICY'
p405
NsS'PR_COMMENT'
p406
Nstp407
Rp408
sVACTRIS
p409
g2
(g3
g4
(dp410
S'PR_HOMEPAGE_URL'
p411
Vhttp://www.actris.eu
p412
sS'PS_ID'
p413
I9744
sS'OPEN_ACCESS'
p414
I01
sS'PR_DESC'
p415
VACTRIS is the European Research Infrastructure for the observation of Aerosol, Clouds, and Trace gases. ACTRIS is composed of observing stations, exploratory platforms, instruments calibration centres, and a data centre.
p416
sS'PR_STARTDATE'
p417
g12
(S'\x07\xdc\x01\x01\x00\x00\x00\x00\x00\x00'
p418
tp419
Rp420
sS'PR_ENDDATE'
p421
NsS'PR_ACRONYM'
p422
g409
sS'SYSTIME'
p423
g2
(g19
g20
(lp424
g12
(S'\x07\xde\x05\x01\x00\x00\x00\x00\x00\x00'
p425
tp426
Rp427
aNatp428
Rp429
(dp430
g28
S'[)'
p431
sbsS'PR_NAME'
p432
VEuropean Research Infrastructure for the observation of Aerosol, Clouds, and Trace gases
p433
sS'PR_DATAPOLICY'
p434
Vhttp://actris.nilu.no/Content/Documents/DataPolicy.pdf
p435
sS'PR_COMMENT'
p436
Nstp437
Rp438
sVEUSAAR
p439
g2
(g3
g4
(dp440
S'PR_HOMEPAGE_URL'
p441
Vhttp://www.eusaar.net
p442
sS'PS_ID'
p443
I13767
sS'OPEN_ACCESS'
p444
I01
sS'PR_DESC'
p445
VIntegration of measurements of atmospheric aerosol properties performed in a distributed network of 20 high quality European ground-based stations in support of policy issues on air quality, long-range transport of pollutants and climate change.
p446
sS'PR_STARTDATE'
p447
g12
(S'\x07\xd7\x05\x15\x08"\x00\x00\x00\x00'
p448
tp449
Rp450
sS'PR_ENDDATE'
p451
NsS'PR_ACRONYM'
p452
g439
sS'SYSTIME'
p453
g2
(g19
g20
(lp454
g12
(S'\x07\xde\x05\x01\x00\x00\x00\x00\x00\x00'
p455
tp456
Rp457
aNatp458
Rp459
(dp460
g28
S'[)'
p461
sbsS'PR_NAME'
p462
VEuropean Supersites for Atmospheric Aerosol Research
p463
sS'PR_DATAPOLICY'
p464
Vhttp://www.eusaar.net/files/data/data_protocol.cfm
p465
sS'PR_COMMENT'
p466
Nstp467
Rp468
sVNOAA-ESRL_NRT
p469
g2
(g3
g4
(dp470
S'PR_HOMEPAGE_URL'
p471
NsS'PS_ID'
p472
I8102
sS'OPEN_ACCESS'
p473
I00
sS'PR_DESC'
p474
NsS'PR_STARTDATE'
p475
g12
(S'\x07\xda\x03\x01\x125\x00\x00\x00\x00'
p476
tp477
Rp478
sS'PR_ENDDATE'
p479
NsS'PR_ACRONYM'
p480
g469
sS'SYSTIME'
p481
g2
(g19
g20
(lp482
g12
(S'\x07\xde\x05\x01\x00\x00\x00\x00\x00\x00'
p483
tp484
Rp485
aNatp486
Rp487
(dp488
g28
S'[)'
p489
sbsS'PR_NAME'
p490
NsS'PR_DATAPOLICY'
p491
NsS'PR_COMMENT'
p492
Nstp493
Rp494
sVAutoPollen_restricted_NRT
p495
g2
(g3
g4
(dp496
S'PR_HOMEPAGE_URL'
p497
Vhttps://www.eumetnet.eu/activities/miscellaneous/current-activities-mi/autopollen/
p498
sS'PS_ID'
p499
I8633
sS'OPEN_ACCESS'
p500
I00
sS'PR_DESC'
p501
VNear realtime data for Automatic European pollen monitoring network, integrating developing and planned projects
p502
sS'PR_STARTDATE'
p503
g12
(S'\x07\xe7\x02\x19\x00\x00\x00\x00\x00\x00'
p504
tp505
Rp506
sS'PR_ENDDATE'
p507
NsS'PR_ACRONYM'
p508
g495
sS'SYSTIME'
p509
g2
(g19
g20
(lp510
g12
(S'\x07\xe7\x03\x1c\r\x1f\t\x02\x9b\x19'
p511
tp512
Rp513
aNatp514
Rp515
(dp516
g28
S'[)'
p517
sbsS'PR_NAME'
p518
VNear realtime data for EUMETNET AutoPollen programme. Data with access restrictions
p519
sS'PR_DATAPOLICY'
p520
NsS'PR_COMMENT'
p521
Vtemporary generated a restricted projects (MeteoSwiss has legal difficulties publishing data
p522
stp523
Rp524
sVIndependent
p525
g2
(g3
g4
(dp526
S'PR_HOMEPAGE_URL'
p527
NsS'PS_ID'
p528
I1195
sS'OPEN_ACCESS'
p529
I01
sS'PR_DESC'
p530
VProject established to allow reporting of data which do not have an affiliation to frameworks in EBAS. Users of "Independent" data should investigate the associated metadata and take contact with data originators regarding matters associated to data use
p531
sS'PR_STARTDATE'
p532
NsS'PR_ENDDATE'
p533
NsS'PR_ACRONYM'
p534
g525
sS'SYSTIME'
p535
g2
(g19
g20
(lp536
g12
(S'\x07\xde\x05\x01\x00\x00\x00\x00\x00\x00'
p537
tp538
Rp539
aNatp540
Rp541
(dp542
g28
S'[)'
p543
sbsS'PR_NAME'
p544
VIndependent data made available without official affiliation to another existing EBAS project/framework
p545
sS'PR_DATAPOLICY'
p546
VPublic open access. We encourage contacting data originators if substatial use of individual time series is planned (fair use data policy).
p547
sS'PR_COMMENT'
p548
Nstp549
Rp550
sVGAW-WDCRG
p551
g2
(g3
g4
(dp552
S'PR_HOMEPAGE_URL'
p553
Vhttp://www.gaw-wdcrg.org
p554
sS'PS_ID'
p555
I1195
sS'OPEN_ACCESS'
p556
I01
sS'PR_DESC'
p557
VThe World Data Centre for Reactive Gases is the data repository and archive for reactive gases of the World Meteorological Organisation's (WMO) Global Atmosphere Watch (GAW) programme.
p558
sS'PR_STARTDATE'
p559
g12
(S'\x07\xe0\x01\x01\x00\x00\x00\x00\x00\x00'
p560
tp561
Rp562
sS'PR_ENDDATE'
p563
NsS'PR_ACRONYM'
p564
g551
sS'SYSTIME'
p565
g2
(g19
g20
(lp566
g12
(S'\x07\xde\x05\x01\x00\x00\x00\x00\x00\x00'
p567
tp568
Rp569
aNatp570
Rp571
(dp572
g28
S'[)'
p573
sbsS'PR_NAME'
p574
VWorld Data Centre for Reactive Gases
p575
sS'PR_DATAPOLICY'
p576
NsS'PR_COMMENT'
p577
Nstp578
Rp579
sVAutoPollen
p580
g2
(g3
g4
(dp581
S'PR_HOMEPAGE_URL'
p582
Vhttps://www.eumetnet.eu/activities/miscellaneous/current-activities-mi/autopollen/
p583
sS'PS_ID'
p584
I8633
sS'OPEN_ACCESS'
p585
I01
sS'PR_DESC'
p586
VAutomatic European pollen monitoring network, integrating developing and planned projects
p587
sS'PR_STARTDATE'
p588
g12
(S'\x07\xe5\x01\x01\x00\x00\x00\x00\x00\x00'
p589
tp590
Rp591
sS'PR_ENDDATE'
p592
NsS'PR_ACRONYM'
p593
g580
sS'SYSTIME'
p594
g2
(g19
g20
(lp595
g12
(S'\x07\xde\x05\x01\x00\x00\x00\x00\x00\x00'
p596
tp597
Rp598
aNatp599
Rp600
(dp601
g28
S'[)'
p602
sbsS'PR_NAME'
p603
VEUMETNET AutoPollen programme
p604
sS'PR_DATAPOLICY'
p605
NsS'PR_COMMENT'
p606
Nstp607
Rp608
sVIMPACTS
p609
g2
(g3
g4
(dp610
S'PR_HOMEPAGE_URL'
p611
NsS'PS_ID'
p612
I6555
sS'OPEN_ACCESS'
p613
I01
sS'PR_DESC'
p614
NsS'PR_STARTDATE'
p615
g12
(S'\x07\xd9\x08\x1c\x0b\x03\x00\x00\x00\x00'
p616
tp617
Rp618
sS'PR_ENDDATE'
p619
NsS'PR_ACRONYM'
p620
g609
sS'SYSTIME'
p621
g2
(g19
g20
(lp622
g12
(S'\x07\xde\x05\x01\x00\x00\x00\x00\x00\x00'
p623
tp624
Rp625
aNatp626
Rp627
(dp628
g28
S'[)'
p629
sbsS'PR_NAME'
p630
NsS'PR_DATAPOLICY'
p631
VPublic open access. We encourage contacting data originators if substatial use of individual time series is planned (fair use data policy).
p632
sS'PR_COMMENT'
p633
Nstp634
Rp635
sVOECD
p636
g2
(g3
g4
(dp637
S'PR_HOMEPAGE_URL'
p638
NsS'PS_ID'
p639
I1195
sS'OPEN_ACCESS'
p640
I01
sS'PR_DESC'
p641
NsS'PR_STARTDATE'
p642
g12
(S'\x07\xb2\x01\x01\x00\x00\x00\x00\x00\x00'
p643
tp644
Rp645
sS'PR_ENDDATE'
p646
NsS'PR_ACRONYM'
p647
g636
sS'SYSTIME'
p648
g2
(g19
g20
(lp649
g12
(S'\x07\xde\x05\x01\x00\x00\x00\x00\x00\x00'
p650
tp651
Rp652
aNatp653
Rp654
(dp655
g28
S'[)'
p656
sbsS'PR_NAME'
p657
NsS'PR_DATAPOLICY'
p658
VPublic open access. We encourage contacting data originators if substatial use of individual time series is planned (fair use data policy).
p659
sS'PR_COMMENT'
p660
Nstp661
Rp662
sVGAW-WDCA_NRT
p663
g2
(g3
g4
(dp664
S'PR_HOMEPAGE_URL'
p665
Vhttp://www.gaw-wdca.org
p666
sS'PS_ID'
p667
I8102
sS'OPEN_ACCESS'
p668
I00
sS'PR_DESC'
p669
VThe World Data Centre for Aerosols is the data repository and archive for microphysical, optical, and chemical properties of atmospheric aerosol of the World Meteorological Organisation's (WMO) Global Atmosphere Watch (GAW) programme.
p670
sS'PR_STARTDATE'
p671
g12
(S'\x07\xd9\x0b\x07\x021\x00\x00\x00\x00'
p672
tp673
Rp674
sS'PR_ENDDATE'
p675
NsS'PR_ACRONYM'
p676
g663
sS'SYSTIME'
p677
g2
(g19
g20
(lp678
g12
(S'\x07\xde\x05\x01\x00\x00\x00\x00\x00\x00'
p679
tp680
Rp681
aNatp682
Rp683
(dp684
g28
S'[)'
p685
sbsS'PR_NAME'
p686
VNear Realtime Data for World Data Centre for Aerosols
p687
sS'PR_DATAPOLICY'
p688
NsS'PR_COMMENT'
p689
Nstp690
Rp691
sVPollenScience_NRT
p692
g2
(g3
g4
(dp693
S'PR_HOMEPAGE_URL'
p694
Vhttps://pollenscience.eu
p695
sS'PS_ID'
p696
I8633
sS'OPEN_ACCESS'
p697
I01
sS'PR_DESC'
p698
VThe aim of Pollen Science is to collect and graphically display the data of different pollen measurement networks and stations.
p699
sS'PR_STARTDATE'
p700
g12
(S'\x07\xe7\t\x0f\x00\x00\x00\x00\x00\x00'
p701
tp702
Rp703
sS'PR_ENDDATE'
p704
NsS'PR_ACRONYM'
p705
g692
sS'SYSTIME'
p706
g2
(g19
g20
(lp707
g12
(S'\x07\xe7\n\x19\x0b\x003\x01|d'
p708
tp709
Rp710
aNatp711
Rp712
(dp713
g28
S'[)'
p714
sbsS'PR_NAME'
p715
VPollen Science NRT
p716
sS'PR_DATAPOLICY'
p717
NsS'PR_COMMENT'
p718
Nstp719
Rp720
sVCREATE
p721
g2
(g3
g4
(dp722
S'PR_HOMEPAGE_URL'
p723
NsS'PS_ID'
p724
I1195
sS'OPEN_ACCESS'
p725
I01
sS'PR_DESC'
p726
NsS'PR_STARTDATE'
p727
g12
(S'\x07\xbc\x01\x01\x00\x00\x00\x00\x00\x00'
p728
tp729
Rp730
sS'PR_ENDDATE'
p731
NsS'PR_ACRONYM'
p732
g721
sS'SYSTIME'
p733
g2
(g19
g20
(lp734
g12
(S'\x07\xde\x05\x01\x00\x00\x00\x00\x00\x00'
p735
tp736
Rp737
aNatp738
Rp739
(dp740
g28
S'[)'
p741
sbsS'PR_NAME'
p742
NsS'PR_DATAPOLICY'
p743
VFair use data policy (see also EMEP and WMO-GAW)
p744
sS'PR_COMMENT'
p745
Nstp746
Rp747
sVCAMP
p748
g2
(g3
g4
(dp749
S'PR_HOMEPAGE_URL'
p750
Vhttp://www.ospar.org
p751
sS'PS_ID'
p752
I6555
sS'OPEN_ACCESS'
p753
I01
sS'PR_DESC'
p754
VThe OSPARCOM Comprehensive Atmospheric Monitoring Programme goal is the assessment of the atmospheric input of selected contaminants to the OSPAR maritime area and regions.
p755
sS'PR_STARTDATE'
p756
g12
(S'\x07\xbc\x01\x01\x00\x00\x00\x00\x00\x00'
p757
tp758
Rp759
sS'PR_ENDDATE'
p760
NsS'PR_ACRONYM'
p761
g748
sS'SYSTIME'
p762
g2
(g19
g20
(lp763
g12
(S'\x07\xde\x05\x01\x00\x00\x00\x00\x00\x00'
p764
tp765
Rp766
aNatp767
Rp768
(dp769
g28
S'[)'
p770
sbsS'PR_NAME'
p771
VOSPARCOM - Comprehensive Atmospheric Monitoring Programme
p772
sS'PR_DATAPOLICY'
p773
VPublic open access. We encourage contacting data originators if substatial use of individual time series is planned (fair use data policy).
p774
sS'PR_COMMENT'
p775
Nstp776
Rp777
sVMAMCS
p778
g2
(g3
g4
(dp779
S'PR_HOMEPAGE_URL'
p780
NsS'PS_ID'
p781
I6555
sS'OPEN_ACCESS'
p782
I00
sS'PR_DESC'
p783
NsS'PR_STARTDATE'
p784
g12
(S'\x07\xce\x01\x01\x00\x00\x00\x00\x00\x00'
p785
tp786
Rp787
sS'PR_ENDDATE'
p788
NsS'PR_ACRONYM'
p789
g778
sS'SYSTIME'
p790
g2
(g19
g20
(lp791
g12
(S'\x07\xde\x05\x01\x00\x00\x00\x00\x00\x00'
p792
tp793
Rp794
aNatp795
Rp796
(dp797
g28
S'[)'
p798
sbsS'PR_NAME'
p799
NsS'PR_DATAPOLICY'
p800
VFor scientific purposes. We encourage contacting data originators if substatial use of individual time series is planned (fair use data policy).
p801
sS'PR_COMMENT'
p802
Nstp803
Rp804
sVEMEP
p805
g2
(g3
g4
(dp806
S'PR_HOMEPAGE_URL'
p807
Vhttp://www.emep.int
p808
sS'PS_ID'
p809
I1195
sS'OPEN_ACCESS'
p810
I01
sS'PR_DESC'
p811
VThe European Monitoring and Evaluation Programme (EMEP) is a scientifically based and policy driven programme under the Convention on Long-range Transboundary Air Pollution (CLRTAP) for int'l co-operation to solve transboundary air pollution problems.
p812
sS'PR_STARTDATE'
p813
g12
(S'\x07\xb9\x03\x02\x00\x00\x00\x00\x00\x00'
p814
tp815
Rp816
sS'PR_ENDDATE'
p817
NsS'PR_ACRONYM'
p818
g805
sS'SYSTIME'
p819
g2
(g19
g20
(lp820
g12
(S'\x07\xde\x05\x01\x00\x00\x00\x00\x00\x00'
p821
tp822
Rp823
aNatp824
Rp825
(dp826
g28
S'[)'
p827
sbsS'PR_NAME'
p828
VEuropean Monitoring and Evaluation Programme
p829
sS'PR_DATAPOLICY'
p830
VPublic open access. We encourage contacting data originators if substatial use of individual time series is planned (fair use data policy).
p831
sS'PR_COMMENT'
p832
Nstp833
Rp834
sVCOLOSSAL
p835
g2
(g3
g4
(dp836
S'PR_HOMEPAGE_URL'
p837
Vhttps://www.costcolossal.eu
p838
sS'PS_ID'
p839
I6555
sS'OPEN_ACCESS'
p840
I00
sS'PR_DESC'
p841
VAssessment of fine atmospheric aerosols (PM2.5), ther spatial variability (across Europe), their temporal variability (1h or better), the seasonality, the phenomenology (chemical composition) and the sources.
p842
sS'PR_STARTDATE'
p843
g12
(S'\x07\xe1\x01\x01\x00\x00\x00\x00\x00\x00'
p844
tp845
Rp846
sS'PR_ENDDATE'
p847
NsS'PR_ACRONYM'
p848
g835
sS'SYSTIME'
p849
g2
(g19
g20
(lp850
g12
(S'\x07\xde\x05\x01\x00\x00\x00\x00\x00\x00'
p851
tp852
Rp853
aNatp854
Rp855
(dp856
g28
S'[)'
p857
sbsS'PR_NAME'
p858
VChemical On-Line cOmpoSition and Source Apportionment of fine aerosoL
p859
sS'PR_DATAPOLICY'
p860
NsS'PR_COMMENT'
p861
Nstp862
Rp863
sVNBPN
p864
g2
(g3
g4
(dp865
S'PR_HOMEPAGE_URL'
p866
NsS'PS_ID'
p867
I8633
sS'OPEN_ACCESS'
p868
I00
sS'PR_DESC'
p869
NsS'PR_STARTDATE'
p870
g12
(S'\x07\xd7\x0c\x12\x0c&\x00\x00\x00\x00'
p871
tp872
Rp873
sS'PR_ENDDATE'
p874
NsS'PR_ACRONYM'
p875
g864
sS'SYSTIME'
p876
g2
(g19
g20
(lp877
g12
(S'\x07\xde\x05\x01\x00\x00\x00\x00\x00\x00'
p878
tp879
Rp880
aNatp881
Rp882
(dp883
g28
S'[)'
p884
sbsS'PR_NAME'
p885
NsS'PR_DATAPOLICY'
p886
Vhttp://iek8wikis.iek.fz-juelich.de/HTAPWiki/NiluDatabase_HTAPDataAccess?action=AttachFile&do=get&target=DataPolicy_HTAP_V02_2009-02-26.pdf
p887
sS'PR_COMMENT'
p888
Nstp889
Rp890
sVINDAAF
p891
g2
(g3
g4
(dp892
S'PR_HOMEPAGE_URL'
p893
Vhttps://indaaf.obs-mip.fr/
p894
sS'PS_ID'
p895
NsS'OPEN_ACCESS'
p896
I00
sS'PR_DESC'
p897
VAtmospheric composition and deposition long-term monitoring in Africa
p898
sS'PR_STARTDATE'
p899
g12
(S'\x07\xda\x01\x01\x00\x00\x00\x00\x00\x00'
p900
tp901
Rp902
sS'PR_ENDDATE'
p903
NsS'PR_ACRONYM'
p904
g891
sS'SYSTIME'
p905
g2
(g19
g20
(lp906
g12
(S'\x07\xe7\t\x16\x06\x07\x01\x00f\xe0'
p907
tp908
Rp909
aNatp910
Rp911
(dp912
g28
S'[)'
p913
sbsS'PR_NAME'
p914
VInternational Network to study Deposition and Atmospheric chemistry in AFrica
p915
sS'PR_DATAPOLICY'
p916
NsS'PR_COMMENT'
p917
Nstp918
Rp919
sVROSHYDROMET
p920
g2
(g3
g4
(dp921
S'PR_HOMEPAGE_URL'
p922
NsS'PS_ID'
p923
I1195
sS'OPEN_ACCESS'
p924
I00
sS'PR_DESC'
p925
NsS'PR_STARTDATE'
p926
g12
(S'\x07\xd9\x08\x1b\n,\x00\x00\x00\x00'
p927
tp928
Rp929
sS'PR_ENDDATE'
p930
NsS'PR_ACRONYM'
p931
g920
sS'SYSTIME'
p932
g2
(g19
g20
(lp933
g12
(S'\x07\xde\x05\x01\x00\x00\x00\x00\x00\x00'
p934
tp935
Rp936
aNatp937
Rp938
(dp939
g28
S'[)'
p940
sbsS'PR_NAME'
p941
NsS'PR_DATAPOLICY'
p942
VData policy will be presented upon request
p943
sS'PR_COMMENT'
p944
Nstp945
Rp946
sVATMO-ACCESS
p947
g2
(g3
g4
(dp948
S'PR_HOMEPAGE_URL'
p949
Vhttps://www.atmo-access.eu
p950
sS'PS_ID'
p951
I9744
sS'OPEN_ACCESS'
p952
I01
sS'PR_DESC'
p953
VATMO-ACCESS is the organized response of distributed atmospheric research facilities for developing a pilot for a new model of Integrating Activities. The project will deliver a series of recommendations for establishing a comprehensive and sustainable framework for access to distributed atmospheric Research Infrastructures (RI), ensuring integrated access to and optimised use of the services they provide.
p954
sS'PR_STARTDATE'
p955
g12
(S'\x07\xe7\x01\x01\x00\x00\x00\x00\x00\x00'
p956
tp957
Rp958
sS'PR_ENDDATE'
p959
NsS'PR_ACRONYM'
p960
g947
sS'SYSTIME'
p961
g2
(g19
g20
(lp962
g12
(S'\x07\xe7\x06\t\x0c\x083\x00\xef\x16'
p963
tp964
Rp965
aNatp966
Rp967
(dp968
g28
S'[)'
p969
sbsS'PR_NAME'
p970
VSustainable Access to Atmospheric Research Facilities
p971
sS'PR_DATAPOLICY'
p972
Vhttps://www7.obs-mip.fr/wp-content-aeris/uploads/sites/82/2023/04/ATMO_ACCESS_WP1_MS1_2.pdf
p973
sS'PR_COMMENT'
p974
VData curated through the Homeless Data Portal of the ATMO-ACCESS project
p975
stp976
Rp977
sVGAW-WDCGG-node
p978
g2
(g3
g4
(dp979
S'PR_HOMEPAGE_URL'
p980
NsS'PS_ID'
p981
I9185
sS'OPEN_ACCESS'
p982
I01
sS'PR_DESC'
p983
NsS'PR_STARTDATE'
p984
g12
(S'\x07\xdc\t\x12\x10\x0e\x18\x02\xe60'
p985
tp986
Rp987
sS'PR_ENDDATE'
p988
NsS'PR_ACRONYM'
p989
g978
sS'SYSTIME'
p990
g2
(g19
g20
(lp991
g12
(S'\x07\xde\x05\x01\x00\x00\x00\x00\x00\x00'
p992
tp993
Rp994
aNatp995
Rp996
(dp997
g28
S'[)'
p998
sbsS'PR_NAME'
p999
VGAW-WDCGG-node
p1000
sS'PR_DATAPOLICY'
p1001
NsS'PR_COMMENT'
p1002
Nstp1003
Rp1004
sVCAPMoN
p1005
g2
(g3
g4
(dp1006
S'PR_HOMEPAGE_URL'
p1007
NsS'PS_ID'
p1008
I8633
sS'OPEN_ACCESS'
p1009
I00
sS'PR_DESC'
p1010
NsS'PR_STARTDATE'
p1011
g12
(S'\x07\xd7\x0c\x0e\r\x07\x00\x00\x00\x00'
p1012
tp1013
Rp1014
sS'PR_ENDDATE'
p1015
NsS'PR_ACRONYM'
p1016
g1005
sS'SYSTIME'
p1017
g2
(g19
g20
(lp1018
g12
(S'\x07\xde\x05\x01\x00\x00\x00\x00\x00\x00'
p1019
tp1020
Rp1021
aNatp1022
Rp1023
(dp1024
g28
S'[)'
p1025
sbsS'PR_NAME'
p1026
NsS'PR_DATAPOLICY'
p1027
Vhttp://iek8wikis.iek.fz-juelich.de/HTAPWiki/NiluDatabase_HTAPDataAccess?action=AttachFile&do=get&target=DataPolicy_HTAP_V02_2009-02-26.pdf
p1028
sS'PR_COMMENT'
p1029
Nstp1030
Rp1031
sVNILU_internal
p1032
g2
(g3
g4
(dp1033
S'PR_HOMEPAGE_URL'
p1034
NsS'PS_ID'
p1035
I6555
sS'OPEN_ACCESS'
p1036
I00
sS'PR_DESC'
p1037
VNILU internal data, password protected, not visible to outside (hidden and test datasets)
p1038
sS'PR_STARTDATE'
p1039
g12
(S'\x07\xd8\x01\x01\x00\x00\x00\x00\x00\x00'
p1040
tp1041
Rp1042
sS'PR_ENDDATE'
p1043
NsS'PR_ACRONYM'
p1044
g1032
sS'SYSTIME'
p1045
g2
(g19
g20
(lp1046
g12
(S'\x07\xde\x05\x01\x00\x00\x00\x00\x00\x00'
p1047
tp1048
Rp1049
aNatp1050
Rp1051
(dp1052
g28
S'[)'
p1053
sbsS'PR_NAME'
p1054
VNILU internal
p1055
sS'PR_DATAPOLICY'
p1056
VFor scientific purposes. Data policy will be given if data are shared
p1057
sS'PR_COMMENT'
p1058
Nstp1059
Rp1060
sVPARIS_NRT
p1061
g2
(g3
g4
(dp1062
S'PR_HOMEPAGE_URL'
p1063
Vhttps://horizoneurope-paris.eu
p1064
sS'PS_ID'
p1065
I6555
sS'OPEN_ACCESS'
p1066
I01
sS'PR_DESC'
p1067
VPARIS \u2013 Process Attribution of Regional Emissions \u2013 is a 4-year Horizon Europe research project (2023-2026). We aim to significantly increase our knowledge about the emissions of climate forcers from eight European countries. PARIS focuses on the interface between bottom-up and top-down approaches and aims to strengthen the collaboration between scientists and national inventory teams for the evaluation and development of national inventories.
p1068
sS'PR_STARTDATE'
p1069
g12
(S'\x07\xe7\x01\x01\x00\x00\x00\x00\x00\x00'
p1070
tp1071
Rp1072
sS'PR_ENDDATE'
p1073
g12
(S'\x07\xeb\x01\x01\x00\x00\x00\x00\x00\x00'
p1074
tp1075
Rp1076
sS'PR_ACRONYM'
p1077
g1061
sS'SYSTIME'
p1078
g2
(g19
g20
(lp1079
g12
(S'\x07\xe8\n\x0f\x0f"\t\x0e\xaa\xce'
p1080
tp1081
Rp1082
aNatp1083
Rp1084
(dp1085
g28
S'[)'
p1086
sbsS'PR_NAME'
p1087
VProcess Attribution of Regional Emissions
p1088
sS'PR_DATAPOLICY'
p1089
NsS'PR_COMMENT'
p1090
VIn-situ aerosol measurements for PARIS should be stored in EBAS while GHG measurements are stored in ICOS Carbon Portal
p1091
stp1092
Rp1093
sVNILU
p1094
g2
(g3
g4
(dp1095
S'PR_HOMEPAGE_URL'
p1096
Vhttp://www.nilu.no
p1097
sS'PS_ID'
p1098
I1195
sS'OPEN_ACCESS'
p1099
I01
sS'PR_DESC'
p1100
VAtmospheric measuremnts produced at NILU.
p1101
sS'PR_STARTDATE'
p1102
g12
(S'\x07\xb2\x01\x01\x00\x00\x00\x00\x00\x00'
p1103
tp1104
Rp1105
sS'PR_ENDDATE'
p1106
NsS'PR_ACRONYM'
p1107
g1094
sS'SYSTIME'
p1108
g2
(g19
g20
(lp1109
g12
(S'\x07\xde\x05\x01\x00\x00\x00\x00\x00\x00'
p1110
tp1111
Rp1112
aNatp1113
Rp1114
(dp1115
g28
S'[)'
p1116
sbsS'PR_NAME'
p1117
VNorwegian Institute for Air Research
p1118
sS'PR_DATAPOLICY'
p1119
VPublic open access. We encourage contacting data originators if substatial use of individual time series is planned (fair use data policy).
p1120
sS'PR_COMMENT'
p1121
Nstp1122
Rp1123
sVGEOmon
p1124
g2
(g3
g4
(dp1125
S'PR_HOMEPAGE_URL'
p1126
NsS'PS_ID'
p1127
I1195
sS'OPEN_ACCESS'
p1128
I00
sS'PR_DESC'
p1129
NsS'PR_STARTDATE'
p1130
g12
(S'\x07\xd8\x01\x01\x00\x00\x00\x00\x00\x00'
p1131
tp1132
Rp1133
sS'PR_ENDDATE'
p1134
NsS'PR_ACRONYM'
p1135
g1124
sS'SYSTIME'
p1136
g2
(g19
g20
(lp1137
g12
(S'\x07\xde\x05\x01\x00\x00\x00\x00\x00\x00'
p1138
tp1139
Rp1140
aNatp1141
Rp1142
(dp1143
g28
S'[)'
p1144
sbsS'PR_NAME'
p1145
NsS'PR_DATAPOLICY'
p1146
VData policy will be presented upon request
p1147
sS'PR_COMMENT'
p1148
Nstp1149
Rp1150
sVInGOS
p1151
g2
(g3
g4
(dp1152
S'PR_HOMEPAGE_URL'
p1153
NsS'PS_ID'
p1154
I9185
sS'OPEN_ACCESS'
p1155
I01
sS'PR_DESC'
p1156
NsS'PR_STARTDATE'
p1157
g12
(S'\x07\xdd\x01\x1d\t;\x00\x00\x00\x00'
p1158
tp1159
Rp1160
sS'PR_ENDDATE'
p1161
NsS'PR_ACRONYM'
p1162
g1151
sS'SYSTIME'
p1163
g2
(g19
g20
(lp1164
g12
(S'\x07\xde\x05\x01\x00\x00\x00\x00\x00\x00'
p1165
tp1166
Rp1167
aNatp1168
Rp1169
(dp1170
g28
S'[)'
p1171
sbsS'PR_NAME'
p1172
NsS'PR_DATAPOLICY'
p1173
VPublic open access. We encourage contacting data originators if substatial use of individual time series is planned (fair use data policy).
p1174
sS'PR_COMMENT'
p1175
Nstp1176
Rp1177
sVPARIS
p1178
g2
(g3
g4
(dp1179
S'PR_HOMEPAGE_URL'
p1180
Vhttps://horizoneurope-paris.eu
p1181
sS'PS_ID'
p1182
I6555
sS'OPEN_ACCESS'
p1183
I01
sS'PR_DESC'
p1184
VPARIS \u2013 Process Attribution of Regional Emissions \u2013 is a 4-year Horizon Europe research project (2023-2026). We aim to significantly increase our knowledge about the emissions of climate forcers from eight European countries. PARIS focuses on the interface between bottom-up and top-down approaches and aims to strengthen the collaboration between scientists and national inventory teams for the evaluation and development of national inventories.
p1185
sS'PR_STARTDATE'
p1186
g12
(S'\x07\xe7\x01\x01\x00\x00\x00\x00\x00\x00'
p1187
tp1188
Rp1189
sS'PR_ENDDATE'
p1190
g12
(S'\x07\xeb\x01\x01\x00\x00\x00\x00\x00\x00'
p1191
tp1192
Rp1193
sS'PR_ACRONYM'
p1194
g1178
sS'SYSTIME'
p1195
g2
(g19
g20
(lp1196
g12
(S'\x07\xe8\x08\x1c\x0b\x07:\r0\xbe'
p1197
tp1198
Rp1199
aNatp1200
Rp1201
(dp1202
g28
S'[)'
p1203
sbsS'PR_NAME'
p1204
VProcess Attribution of Regional Emissions
p1205
sS'PR_DATAPOLICY'
p1206
NsS'PR_COMMENT'
p1207
VIn-situ aerosol measurements for PARIS should be stored in EBAS, while GHG measurements are stored in ICOS Carbon Portal
p1208
stp1209
Rp1210
sVEUCAARI
p1211
g2
(g3
g4
(dp1212
S'PR_HOMEPAGE_URL'
p1213
NsS'PS_ID'
p1214
I9185
sS'OPEN_ACCESS'
p1215
I00
sS'PR_DESC'
p1216
NsS'PR_STARTDATE'
p1217
g12
(S'\x07\xd9\x06\x17\x13\x08\x00\x00\x00\x00'
p1218
tp1219
Rp1220
sS'PR_ENDDATE'
p1221
NsS'PR_ACRONYM'
p1222
g1211
sS'SYSTIME'
p1223
g2
(g19
g20
(lp1224
g12
(S'\x07\xde\x05\x01\x00\x00\x00\x00\x00\x00'
p1225
tp1226
Rp1227
aNatp1228
Rp1229
(dp1230
g28
S'[)'
p1231
sbsS'PR_NAME'
p1232
NsS'PR_DATAPOLICY'
p1233
Vhttp://www.eusaar.net/files/data/data_protocol.cfm
p1234
sS'PR_COMMENT'
p1235
Nstp1236
Rp1237
sVReGAME
p1238
g2
(g3
g4
(dp1239
S'PR_HOMEPAGE_URL'
p1240
Vhttps://www.nilu.com/2021/12/regame-exploring-methane-sources/
p1241
sS'PS_ID'
p1242
I16869
sS'OPEN_ACCESS'
p1243
I01
sS'PR_DESC'
p1244
VIn ReGAME, Reliable Global Methane Emissions estimates in a changing world, we integrate new measurement technologies into models to determine why atmospheric methane (CH4) is increasing, and whether climate-sensitive Arctic CH4 reservoirs will release significant CH4 to the atmosphere
p1245
sS'PR_STARTDATE'
p1246
g12
(S'\x07\xe4\x0c\x01\x00\x00\x00\x00\x00\x00'
p1247
tp1248
Rp1249
sS'PR_ENDDATE'
p1250
NsS'PR_ACRONYM'
p1251
g1238
sS'SYSTIME'
p1252
g2
(g19
g20
(lp1253
g12
(S'\x07\xe7\x06\x15\x0b*%\x06\x00X'
p1254
tp1255
Rp1256
aNatp1257
Rp1258
(dp1259
g28
S'[)'
p1260
sbsS'PR_NAME'
p1261
VREliable Global Methane Emissions estimates in a changing world
p1262
sS'PR_DATAPOLICY'
p1263
NsS'PR_COMMENT'
p1264
Nstp1265
Rp1266
sVsel_HTAP
p1267
g2
(g3
g4
(dp1268
S'PR_HOMEPAGE_URL'
p1269
NsS'PS_ID'
p1270
I8633
sS'OPEN_ACCESS'
p1271
I00
sS'PR_DESC'
p1272
VHTAP Observation DB - selection of Datasets from other (primary) Projects
p1273
sS'PR_STARTDATE'
p1274
g12
(S'\x07\xd0\x01\x01\x00\x00\x00\x00\x00\x00'
p1275
tp1276
Rp1277
sS'PR_ENDDATE'
p1278
NsS'PR_ACRONYM'
p1279
g1267
sS'SYSTIME'
p1280
g2
(g19
g20
(lp1281
g12
(S'\x07\xde\x05\x01\x00\x00\x00\x00\x00\x00'
p1282
tp1283
Rp1284
aNatp1285
Rp1286
(dp1287
g28
S'[)'
p1288
sbsS'PR_NAME'
p1289
VHTAP Observation DB
p1290
sS'PR_DATAPOLICY'
p1291
Vhttp://iek8wikis.iek.fz-juelich.de/HTAPWiki/NiluDatabase_HTAPDataAccess?action=AttachFile&do=get&target=DataPolicy_HTAP_V02_2009-02-26.pdf
p1292
sS'PR_COMMENT'
p1293
Nstp1294
Rp1295
sVSYLVA_NRT
p1296
g2
(g3
g4
(dp1297
S'PR_HOMEPAGE_URL'
p1298
Vhttps://sylva.bioaerosol.eu
p1299
sS'PS_ID'
p1300
I8633
sS'OPEN_ACCESS'
p1301
I01
sS'PR_DESC'
p1302
VThe overall goal of SYLVA is to achieve a radical improvement and fill gaps in temporal resolution, timeliness, coverage, and availability of information about aeroalaeroallergens and other bioaerosols
p1303
sS'PR_STARTDATE'
p1304
g12
(S'\x07\xe7\t\x0f\x00\x00\x00\x00\x00\x00'
p1305
tp1306
Rp1307
sS'PR_ENDDATE'
p1308
NsS'PR_ACRONYM'
p1309
g1296
sS'SYSTIME'
p1310
g2
(g19
g20
(lp1311
g12
(S'\x07\xe7\t\x13\r\x031\tR\xb3'
p1312
tp1313
Rp1314
aNatp1315
Rp1316
(dp1317
g28
S'[)'
p1318
sbsS'PR_NAME'
p1319
VNear realtime data for SYLVA
p1320
sS'PR_DATAPOLICY'
p1321
NsS'PR_COMMENT'
p1322
Nstp1323
Rp1324
sVSIOS_InfraNOR
p1325
g2
(g3
g4
(dp1326
S'PR_HOMEPAGE_URL'
p1327
Vhttps://sios-svalbard.org/
p1328
sS'PS_ID'
p1329
I8102
sS'OPEN_ACCESS'
p1330
I00
sS'PR_DESC'
p1331
VSIOS_InfraNOR covers the Norwegian contribution to the Svalbard Integrated Observing System (SIOS)
p1332
sS'PR_STARTDATE'
p1333
g12
(S'\x07\xe5\x02\t\x00\x00\x00\x00\x00\x00'
p1334
tp1335
Rp1336
sS'PR_ENDDATE'
p1337
NsS'PR_ACRONYM'
p1338
g1325
sS'SYSTIME'
p1339
g2
(g19
g20
(lp1340
g12
(S'\x07\xde\x05\x01\x00\x00\x00\x00\x00\x00'
p1341
tp1342
Rp1343
aNatp1344
Rp1345
(dp1346
g28
S'[)'
p1347
sbsS'PR_NAME'
p1348
VNorwegian contribution to the Svalbard Integrated Observing System
p1349
sS'PR_DATAPOLICY'
p1350
VPublic open access. We encourage contacting data originators if substatial use of individual time series is planned (fair use data policy).
p1351
sS'PR_COMMENT'
p1352
Nstp1353
Rp1354
sVGAW-WDCA
p1355
g2
(g3
g4
(dp1356
S'PR_HOMEPAGE_URL'
p1357
Vhttp://www.gaw-wdca.org
p1358
sS'PS_ID'
p1359
I8102
sS'OPEN_ACCESS'
p1360
I01
sS'PR_DESC'
p1361
VThe World Data Centre for Aerosols is the data repository and archive for microphysical, optical, and chemical properties of atmospheric aerosol of the World Meteorological Organisation's (WMO) Global Atmosphere Watch (GAW) programme.
p1362
sS'PR_STARTDATE'
p1363
g12
(S"\x07\xd8\n\t\r'\n\x03\xf7\xa0"
p1364
tp1365
Rp1366
sS'PR_ENDDATE'
p1367
NsS'PR_ACRONYM'
p1368
g1355
sS'SYSTIME'
p1369
g2
(g19
g20
(lp1370
g12
(S'\x07\xde\x05\x01\x00\x00\x00\x00\x00\x00'
p1371
tp1372
Rp1373
aNatp1374
Rp1375
(dp1376
g28
S'[)'
p1377
sbsS'PR_NAME'
p1378
VWorld Data Centre for Aerosols
p1379
sS'PR_DATAPOLICY'
p1380
NsS'PR_COMMENT'
p1381
Nstp1382
Rp1383
sVePIN
p1384
g2
(g3
g4
(dp1385
S'PR_HOMEPAGE_URL'
p1386
Vhttps://epin.lgl.bayern.de
p1387
sS'PS_ID'
p1388
I8633
sS'OPEN_ACCESS'
p1389
I00
sS'PR_DESC'
p1390
VElektronisches Polleninformationsnetzwerk Bayern (Electronic Pollen Information Network) monitors pollen concentarion at 8 sites.
p1391
sS'PR_STARTDATE'
p1392
g12
(S'\x07\xe8\x01\x01\x00\x00\x00\x00\x00\x00'
p1393
tp1394
Rp1395
sS'PR_ENDDATE'
p1396
NsS'PR_ACRONYM'
p1397
g1384
sS'SYSTIME'
p1398
g2
(g19
g20
(lp1399
g12
(S'\x07\xe8\t\x0c\x08\r,\x08\x97F'
p1400
tp1401
Rp1402
aNatp1403
Rp1404
(dp1405
g28
S'[)'
p1406
sbsS'PR_NAME'
p1407
VElectronic Pollen Information Network
p1408
sS'PR_DATAPOLICY'
p1409
NsS'PR_COMMENT'
p1410
Nstp1411
Rp1412
sVEMEP_preliminary
p1413
g2
(g3
g4
(dp1414
S'PR_HOMEPAGE_URL'
p1415
Vhttp://www.emep.int
p1416
sS'PS_ID'
p1417
I1195
sS'OPEN_ACCESS'
p1418
I00
sS'PR_DESC'
p1419
VThe European Monitoring and Evaluation Programme (EMEP) is a scientifically based and policy driven programme under the Convention on Long-range Transboundary Air Pollution (CLRTAP) for int'l co-operation to solve transboundary air pollution problems.
p1420
sS'PR_STARTDATE'
p1421
g12
(S"\x07\xd8\n\t\r'\n\x03\xf7\xa0"
p1422
tp1423
Rp1424
sS'PR_ENDDATE'
p1425
NsS'PR_ACRONYM'
p1426
g1413
sS'SYSTIME'
p1427
g2
(g19
g20
(lp1428
g12
(S'\x07\xde\x05\x01\x00\x00\x00\x00\x00\x00'
p1429
tp1430
Rp1431
aNatp1432
Rp1433
(dp1434
g28
S'[)'
p1435
sbsS'PR_NAME'
p1436
VPreliminary data submissions for European Monitoring and Evaluation Programme
p1437
sS'PR_DATAPOLICY'
p1438
VThese data seta are considered as preliminary data, but may be given access to for scientific purposes.  Data policy will be presented upon request
p1439
sS'PR_COMMENT'
p1440
Nstp1441
Rp1442
sVNAtChem
p1443
g2
(g3
g4
(dp1444
S'PR_HOMEPAGE_URL'
p1445
NsS'PS_ID'
p1446
I8633
sS'OPEN_ACCESS'
p1447
I00
sS'PR_DESC'
p1448
NsS'PR_STARTDATE'
p1449
g12
(S'\x07\xd0\x01\x01\x00\x00\x00\x00\x00\x00'
p1450
tp1451
Rp1452
sS'PR_ENDDATE'
p1453
NsS'PR_ACRONYM'
p1454
g1443
sS'SYSTIME'
p1455
g2
(g19
g20
(lp1456
g12
(S'\x07\xde\x05\x01\x00\x00\x00\x00\x00\x00'
p1457
tp1458
Rp1459
aNatp1460
Rp1461
(dp1462
g28
S'[)'
p1463
sbsS'PR_NAME'
p1464
NsS'PR_DATAPOLICY'
p1465
Vhttp://iek8wikis.iek.fz-juelich.de/HTAPWiki/NiluDatabase_HTAPDataAccess?action=AttachFile&do=get&target=DataPolicy_HTAP_V02_2009-02-26.pdf
p1466
sS'PR_COMMENT'
p1467
Nstp1468
Rp1469
sVNOAA-ESRL
p1470
g2
(g3
g4
(dp1471
S'PR_HOMEPAGE_URL'
p1472
NsS'PS_ID'
p1473
I8102
sS'OPEN_ACCESS'
p1474
I01
sS'PR_DESC'
p1475
NsS'PR_STARTDATE'
p1476
g12
(S'\x07\xd9\n\x13\x0e3\x00\x00\x00\x00'
p1477
tp1478
Rp1479
sS'PR_ENDDATE'
p1480
NsS'PR_ACRONYM'
p1481
g1470
sS'SYSTIME'
p1482
g2
(g19
g20
(lp1483
g12
(S'\x07\xde\x05\x01\x00\x00\x00\x00\x00\x00'
p1484
tp1485
Rp1486
aNatp1487
Rp1488
(dp1489
g28
S'[)'
p1490
sbsS'PR_NAME'
p1491
NsS'PR_DATAPOLICY'
p1492
NsS'PR_COMMENT'
p1493
Nstp1494
Rp1495
sVHELCOM
p1496
g2
(g3
g4
(dp1497
S'PR_HOMEPAGE_URL'
p1498
Vhttp://www.helcom.fi
p1499
sS'PS_ID'
p1500
I1195
sS'OPEN_ACCESS'
p1501
I01
sS'PR_DESC'
p1502
VAtmospheric monitoring data for the assessment of the atmospheric input of selected contaminants to the Baltic sea area.
p1503
sS'PR_STARTDATE'
p1504
g12
(S'\x07\xc2\x03\x02\x00\x00\x00\x00\x00\x00'
p1505
tp1506
Rp1507
sS'PR_ENDDATE'
p1508
NsS'PR_ACRONYM'
p1509
g1496
sS'SYSTIME'
p1510
g2
(g19
g20
(lp1511
g12
(S'\x07\xde\x05\x01\x00\x00\x00\x00\x00\x00'
p1512
tp1513
Rp1514
aNatp1515
Rp1516
(dp1517
g28
S'[)'
p1518
sbsS'PR_NAME'
p1519
VBaltic Marine Environment Protection Commission - Helsinki Commission
p1520
sS'PR_DATAPOLICY'
p1521
VPublic open access. We encourage contacting data originators if substatial use of individual time series is planned (fair use data policy).
p1522
sS'PR_COMMENT'
p1523
Nstp1524
Rp1525
sVEMEP_NRT
p1526
g2
(g3
g4
(dp1527
S'PR_HOMEPAGE_URL'
p1528
Vhttp://www.emep.int
p1529
sS'PS_ID'
p1530
I1195
sS'OPEN_ACCESS'
p1531
I00
sS'PR_DESC'
p1532
VThe European Monitoring and Evaluation Programme (EMEP) is a scientifically based and policy driven programme under the Convention on Long-range Transboundary Air Pollution (CLRTAP) for int'l co-operation to solve transboundary air pollution problems.
p1533
sS'PR_STARTDATE'
p1534
g12
(S'\x07\xdb\x01\x01\x00\x00\x00\x00\x00\x00'
p1535
tp1536
Rp1537
sS'PR_ENDDATE'
p1538
NsS'PR_ACRONYM'
p1539
g1526
sS'SYSTIME'
p1540
g2
(g19
g20
(lp1541
g12
(S'\x07\xde\x05\x01\x00\x00\x00\x00\x00\x00'
p1542
tp1543
Rp1544
aNatp1545
Rp1546
(dp1547
g28
S'[)'
p1548
sbsS'PR_NAME'
p1549
VNear Realtime Data for European Monitoring and Evaluation Programme
p1550
sS'PR_DATAPOLICY'
p1551
VData policy will be presented upon request
p1552
sS'PR_COMMENT'
p1553
Nstp1554
Rp1555
sVePIN_NRT
p1556
g2
(g3
g4
(dp1557
S'PR_HOMEPAGE_URL'
p1558
Vhttps://epin.lgl.bayern.de
p1559
sS'PS_ID'
p1560
I8633
sS'OPEN_ACCESS'
p1561
I00
sS'PR_DESC'
p1562
VElektronisches Polleninformationsnetzwerk Bayern (Electronic Pollen Information Network) monitors pollen concentarion at 8 sites.
p1563
sS'PR_STARTDATE'
p1564
g12
(S'\x07\xe8\x01\x01\x00\x00\x00\x00\x00\x00'
p1565
tp1566
Rp1567
sS'PR_ENDDATE'
p1568
NsS'PR_ACRONYM'
p1569
g1556
sS'SYSTIME'
p1570
g2
(g19
g20
(lp1571
g12
(S'\x07\xe8\t\x0c\x08\r,\x08\x97F'
p1572
tp1573
Rp1574
aNatp1575
Rp1576
(dp1577
g28
S'[)'
p1578
sbsS'PR_NAME'
p1579
VNear Realtime Data for Electronic Pollen Information Network
p1580
sS'PR_DATAPOLICY'
p1581
NsS'PR_COMMENT'
p1582
Nstp1583
Rp1584
sVEUSAAR_NRT
p1585
g2
(g3
g4
(dp1586
S'PR_HOMEPAGE_URL'
p1587
Vhttp://www.eusaar.net
p1588
sS'PS_ID'
p1589
I13767
sS'OPEN_ACCESS'
p1590
I00
sS'PR_DESC'
p1591
VIntegration of measurements of atmospheric aerosol properties performed in a distributed network of 20 high quality European ground-based stations in support of policy issues on air quality, long-range transport of pollutants and climate change.
p1592
sS'PR_STARTDATE'
p1593
g12
(S'\x07\xd9\x0b\x07\x021\x00\x00\x00\x00'
p1594
tp1595
Rp1596
sS'PR_ENDDATE'
p1597
NsS'PR_ACRONYM'
p1598
g1585
sS'SYSTIME'
p1599
g2
(g19
g20
(lp1600
g12
(S'\x07\xde\x05\x01\x00\x00\x00\x00\x00\x00'
p1601
tp1602
Rp1603
aNatp1604
Rp1605
(dp1606
g28
S'[)'
p1607
sbsS'PR_NAME'
p1608
VNear Realtime Data for European Supersites for Atmospheric Aerosol Research
p1609
sS'PR_DATAPOLICY'
p1610
NsS'PR_COMMENT'
p1611
Nstp1612
Rp1613
sVRI-URBANS
p1614
g2
(g3
g4
(dp1615
S'PR_HOMEPAGE_URL'
p1616
Vhttps://riurbans.eu
p1617
sS'PS_ID'
p1618
I8102
sS'OPEN_ACCESS'
p1619
I01
sS'PR_DESC'
p1620
NsS'PR_STARTDATE'
p1621
g12
(S'\x07\xe6\x01\x01\x00\x00\x00\x00\x00\x00'
p1622
tp1623
Rp1624
sS'PR_ENDDATE'
p1625
NsS'PR_ACRONYM'
p1626
g1614
sS'SYSTIME'
p1627
g2
(g19
g20
(lp1628
g12
(S'\x07\xe6\x0b\x0e\r9\x0b\x0eR\xa2'
p1629
tp1630
Rp1631
aNatp1632
Rp1633
(dp1634
g28
S'[)'
p1635
sbsS'PR_NAME'
p1636
VRI-URBANS
p1637
sS'PR_DATAPOLICY'
p1638
NsS'PR_COMMENT'
p1639
Nstp1640
Rp1641
sVsel_GEOmon2.1
p1642
g2
(g3
g4
(dp1643
S'PR_HOMEPAGE_URL'
p1644
NsS'PS_ID'
p1645
I1195
sS'OPEN_ACCESS'
p1646
I00
sS'PR_DESC'
p1647
NsS'PR_STARTDATE'
p1648
g12
(S'\x07\xd8\x0c\x05\x00\x00\x00\x00\x00\x00'
p1649
tp1650
Rp1651
sS'PR_ENDDATE'
p1652
NsS'PR_ACRONYM'
p1653
g1642
sS'SYSTIME'
p1654
g2
(g19
g20
(lp1655
g12
(S'\x07\xde\x05\x01\x00\x00\x00\x00\x00\x00'
p1656
tp1657
Rp1658
aNatp1659
Rp1660
(dp1661
g28
S'[)'
p1662
sbsS'PR_NAME'
p1663
NsS'PR_DATAPOLICY'
p1664
VData policy will be presented upon request
p1665
sS'PR_COMMENT'
p1666
Nstp1667
Rp1668
sVEANET
p1669
g2
(g3
g4
(dp1670
S'PR_HOMEPAGE_URL'
p1671
NsS'PS_ID'
p1672
I8633
sS'OPEN_ACCESS'
p1673
I00
sS'PR_DESC'
p1674
NsS'PR_STARTDATE'
p1675
g12
(S'\x07\xd8\x01\n\n\x1b\x00\x00\x00\x00'
p1676
tp1677
Rp1678
sS'PR_ENDDATE'
p1679
NsS'PR_ACRONYM'
p1680
g1669
sS'SYSTIME'
p1681
g2
(g19
g20
(lp1682
g12
(S'\x07\xde\x05\x01\x00\x00\x00\x00\x00\x00'
p1683
tp1684
Rp1685
aNatp1686
Rp1687
(dp1688
g28
S'[)'
p1689
sbsS'PR_NAME'
p1690
NsS'PR_DATAPOLICY'
p1691
Vhttp://iek8wikis.iek.fz-juelich.de/HTAPWiki/NiluDatabase_HTAPDataAccess?action=AttachFile&do=get&target=DataPolicy_HTAP_V02_2009-02-26.pdf
p1692
sS'PR_COMMENT'
p1693
Nstp1694
Rp1695
sVUK_DECC
p1696
g2
(g3
g4
(dp1697
S'PR_HOMEPAGE_URL'
p1698
NsS'PS_ID'
p1699
I9185
sS'OPEN_ACCESS'
p1700
I01
sS'PR_DESC'
p1701
NsS'PR_STARTDATE'
p1702
g12
(S'\x07\xdd\x03\x07\x0b\x01\x1f\x00\x00\x00'
p1703
tp1704
Rp1705
sS'PR_ENDDATE'
p1706
NsS'PR_ACRONYM'
p1707
g1696
sS'SYSTIME'
p1708
g2
(g19
g20
(lp1709
g12
(S'\x07\xde\x05\x01\x00\x00\x00\x00\x00\x00'
p1710
tp1711
Rp1712
aNatp1713
Rp1714
(dp1715
g28
S'[)'
p1716
sbsS'PR_NAME'
p1717
NsS'PR_DATAPOLICY'
p1718
VPublic open access. We encourage contacting data originators if substatial use of individual time series is planned (fair use data policy).
p1719
sS'PR_COMMENT'
p1720
Nstp1721
Rp1722
sVMOCA_NRT
p1723
g2
(g3
g4
(dp1724
S'PR_HOMEPAGE_URL'
p1725
Vhttp://moca.nilu.no
p1726
sS'PS_ID'
p1727
I13767
sS'OPEN_ACCESS'
p1728
I00
sS'PR_DESC'
p1729
VNear Realtime Data for Methane emissions from the Arctic OCean to the Atmosphere
p1730
sS'PR_STARTDATE'
p1731
g12
(S'\x07\xde\x01\x01\x00\x00\x00\x00\x00\x00'
p1732
tp1733
Rp1734
sS'PR_ENDDATE'
p1735
NsS'PR_ACRONYM'
p1736
g1723
sS'SYSTIME'
p1737
g2
(g19
g20
(lp1738
g12
(S'\x07\xde\x05\x01\x00\x00\x00\x00\x00\x00'
p1739
tp1740
Rp1741
aNatp1742
Rp1743
(dp1744
g28
S'[)'
p1745
sbsS'PR_NAME'
p1746
VMethane emissions from the Arctic OCean to the Atmosphere (near realtime data)
p1747
sS'PR_DATAPOLICY'
p1748
VFor scientific purposes, access to MOCA data is unlimited but by their use you accept that an offer of co-authorship will be made through personal contact with the data producer or owner.
p1749
sS'PR_COMMENT'
p1750
Nstp1751
Rp1752
sVSOGE
p1753
g2
(g3
g4
(dp1754
S'PR_HOMEPAGE_URL'
p1755
NsS'PS_ID'
p1756
I9185
sS'OPEN_ACCESS'
p1757
I00
sS'PR_DESC'
p1758
NsS'PR_STARTDATE'
p1759
g12
(S'\x07\xd7\x06\x15\x06\x03\x00\x00\x00\x00'
p1760
tp1761
Rp1762
sS'PR_ENDDATE'
p1763
NsS'PR_ACRONYM'
p1764
g1753
sS'SYSTIME'
p1765
g2
(g19
g20
(lp1766
g12
(S'\x07\xde\x05\x01\x00\x00\x00\x00\x00\x00'
p1767
tp1768
Rp1769
aNatp1770
Rp1771
(dp1772
g28
S'[)'
p1773
sbsS'PR_NAME'
p1774
NsS'PR_DATAPOLICY'
p1775
VData policy will be presented upon request
p1776
sS'PR_COMMENT'
p1777
Nstp1778
Rp1779
sVHELCOM_preliminary
p1780
g2
(g3
g4
(dp1781
S'PR_HOMEPAGE_URL'
p1782
Vhttp://www.helcom.fi
p1783
sS'PS_ID'
p1784
I1195
sS'OPEN_ACCESS'
p1785
I00
sS'PR_DESC'
p1786
VAtmospheric monitoring data for the assessment of the atmospheric input of selected contaminants to the Baltic sea area.
p1787
sS'PR_STARTDATE'
p1788
g12
(S'\x07\xd8\n\t\x14\r8\x00u0'
p1789
tp1790
Rp1791
sS'PR_ENDDATE'
p1792
NsS'PR_ACRONYM'
p1793
g1780
sS'SYSTIME'
p1794
g2
(g19
g20
(lp1795
g12
(S'\x07\xde\x05\x01\x00\x00\x00\x00\x00\x00'
p1796
tp1797
Rp1798
aNatp1799
Rp1800
(dp1801
g28
S'[)'
p1802
sbsS'PR_NAME'
p1803
VPreliminary data submissions for Baltic Marine Environment Protection Commission - Helsinki Commission
p1804
sS'PR_DATAPOLICY'
p1805
VThese data seta are considered as preliminary data, but may be given access to for scientific purposes.  Data policy will be presented upon request
p1806
sS'PR_COMMENT'
p1807
Nstp1808
Rp1809
sVACTRIS_NRT
p1810
g2
(g3
g4
(dp1811
S'PR_HOMEPAGE_URL'
p1812
Vhttp://www.actris.eu
p1813
sS'PS_ID'
p1814
I9744
sS'OPEN_ACCESS'
p1815
I01
sS'PR_DESC'
p1816
VACTRIS is the European Research Infrastructure for the observation of Aerosol, Clouds, and Trace gases. ACTRIS is composed of observing stations, exploratory platforms, instruments calibration centres, and a data centre.
p1817
sS'PR_STARTDATE'
p1818
g12
(S'\x07\xdc\x01\x01\x00\x00\x00\x00\x00\x00'
p1819
tp1820
Rp1821
sS'PR_ENDDATE'
p1822
NsS'PR_ACRONYM'
p1823
g1810
sS'SYSTIME'
p1824
g2
(g19
g20
(lp1825
g12
(S'\x07\xde\x05\x01\x00\x00\x00\x00\x00\x00'
p1826
tp1827
Rp1828
aNatp1829
Rp1830
(dp1831
g28
S'[)'
p1832
sbsS'PR_NAME'
p1833
VNear Realtime Data for European Research Infrastructure for the observation of Aerosol, Clouds, and Trace gases
p1834
sS'PR_DATAPOLICY'
p1835
Vhttp://actris.nilu.no/Content/Documents/DataPolicy.pdf
p1836
sS'PR_COMMENT'
p1837
Nstp1838
Rp1839
sVSYLVA
p1840
g2
(g3
g4
(dp1841
S'PR_HOMEPAGE_URL'
p1842
Vhttps://sylva.bioaerosol.eu
p1843
sS'PS_ID'
p1844
I8633
sS'OPEN_ACCESS'
p1845
I01
sS'PR_DESC'
p1846
VThe overall goal of SYLVA is to achieve a radical improvement and fill gaps in temporal resolution, timeliness, coverage, and availability of information about aeroalaeroallergens and other bioaerosols
p1847
sS'PR_STARTDATE'
p1848
g12
(S'\x07\xe7\t\x0f\x00\x00\x00\x00\x00\x00'
p1849
tp1850
Rp1851
sS'PR_ENDDATE'
p1852
NsS'PR_ACRONYM'
p1853
g1840
sS'SYSTIME'
p1854
g2
(g19
g20
(lp1855
g12
(S'\x07\xe7\t\x13\r\x031\tR\xb3'
p1856
tp1857
Rp1858
aNatp1859
Rp1860
(dp1861
g28
S'[)'
p1862
sbsS'PR_NAME'
p1863
VSYLVA
p1864
sS'PR_DATAPOLICY'
p1865
NsS'PR_COMMENT'
p1866
Nstp1867
Rp1868
sVLegacy
p1869
g2
(g3
g4
(dp1870
S'PR_HOMEPAGE_URL'
p1871
NsS'PS_ID'
p1872
I1390
sS'OPEN_ACCESS'
p1873
I00
sS'PR_DESC'
p1874
VLegacy data, content is locked and data not available
p1875
sS'PR_STARTDATE'
p1876
g12
(S'\x07\xe3\x02\x0b\x0f)6\x07\xac\xd8'
p1877
tp1878
Rp1879
sS'PR_ENDDATE'
p1880
NsS'PR_ACRONYM'
p1881
g1869
sS'SYSTIME'
p1882
g2
(g19
g20
(lp1883
g12
(S'\x07\xde\x05\x01\x00\x00\x00\x00\x00\x00'
p1884
tp1885
Rp1886
aNatp1887
Rp1888
(dp1889
g28
S'[)'
p1890
sbsS'PR_NAME'
p1891
VLegacy data
p1892
sS'PR_DATAPOLICY'
p1893
NsS'PR_COMMENT'
p1894
Nstp1895
Rp1896
sVAutoPollen_NRT
p1897
g2
(g3
g4
(dp1898
S'PR_HOMEPAGE_URL'
p1899
Vhttps://www.eumetnet.eu/activities/miscellaneous/current-activities-mi/autopollen/
p1900
sS'PS_ID'
p1901
I8633
sS'OPEN_ACCESS'
p1902
I01
sS'PR_DESC'
p1903
VNear realtime data for Automatic European pollen monitoring network, integrating developing and planned projects
p1904
sS'PR_STARTDATE'
p1905
g12
(S'\x07\xe5\x01\x01\x00\x00\x00\x00\x00\x00'
p1906
tp1907
Rp1908
sS'PR_ENDDATE'
p1909
NsS'PR_ACRONYM'
p1910
g1897
sS'SYSTIME'
p1911
g2
(g19
g20
(lp1912
g12
(S'\x07\xde\x05\x01\x00\x00\x00\x00\x00\x00'
p1913
tp1914
Rp1915
aNatp1916
Rp1917
(dp1918
g28
S'[)'
p1919
sbsS'PR_NAME'
p1920
VNear realtime data for EUMETNET AutoPollen programme
p1921
sS'PR_DATAPOLICY'
p1922
NsS'PR_COMMENT'
p1923
Nstp1924
Rp1925
sVRI-URBANS_NRT
p1926
g2
(g3
g4
(dp1927
S'PR_HOMEPAGE_URL'
p1928
Vhttps://riurbans.eu
p1929
sS'PS_ID'
p1930
I8102
sS'OPEN_ACCESS'
p1931
I01
sS'PR_DESC'
p1932
NsS'PR_STARTDATE'
p1933
g12
(S'\x07\xe6\x01\x01\x00\x00\x00\x00\x00\x00'
p1934
tp1935
Rp1936
sS'PR_ENDDATE'
p1937
NsS'PR_ACRONYM'
p1938
g1926
sS'SYSTIME'
p1939
g2
(g19
g20
(lp1940
g12
(S'\x07\xe6\x0b\x0e\r9\x0b\x0eR\xa2'
p1941
tp1942
Rp1943
aNatp1944
Rp1945
(dp1946
g28
S'[)'
p1947
sbsS'PR_NAME'
p1948
VRI-URBANS
p1949
sS'PR_DATAPOLICY'
p1950
NsS'PR_COMMENT'
p1951
Nstp1952
Rp1953
sVNILU_preliminary
p1954
g2
(g3
g4
(dp1955
S'PR_HOMEPAGE_URL'
p1956
Vhttp://www.nilu.no
p1957
sS'PS_ID'
p1958
I1195
sS'OPEN_ACCESS'
p1959
I00
sS'PR_DESC'
p1960
VAtmospheric measuremnts produced at NILU.
p1961
sS'PR_STARTDATE'
p1962
g12
(S"\x07\xd8\n\t\r'\n\x03\xf7\xa0"
p1963
tp1964
Rp1965
sS'PR_ENDDATE'
p1966
NsS'PR_ACRONYM'
p1967
g1954
sS'SYSTIME'
p1968
g2
(g19
g20
(lp1969
g12
(S'\x07\xde\x05\x01\x00\x00\x00\x00\x00\x00'
p1970
tp1971
Rp1972
aNatp1973
Rp1974
(dp1975
g28
S'[)'
p1976
sbsS'PR_NAME'
p1977
VPreliminary data submissions from Norwegian Institute for Air Research
p1978
sS'PR_DATAPOLICY'
p1979
VData can not be published without specific agreement from NILU.
p1980
sS'PR_COMMENT'
p1981
Nstp1982
Rp1983
sVAMAP_public
p1984
g2
(g3
g4
(dp1985
S'PR_HOMEPAGE_URL'
p1986
NsS'PS_ID'
p1987
I6555
sS'OPEN_ACCESS'
p1988
I01
sS'PR_DESC'
p1989
NsS'PR_STARTDATE'
p1990
g12
(S'\x07\xbc\x01\x01\x00\x00\x00\x00\x00\x00'
p1991
tp1992
Rp1993
sS'PR_ENDDATE'
p1994
NsS'PR_ACRONYM'
p1995
g1984
sS'SYSTIME'
p1996
g2
(g19
g20
(lp1997
g12
(S'\x07\xde\x05\x01\x00\x00\x00\x00\x00\x00'
p1998
tp1999
Rp2000
aNatp2001
Rp2002
(dp2003
g28
S'[)'
p2004
sbsS'PR_NAME'
p2005
NsS'PR_DATAPOLICY'
p2006
VPublic open access. We encourage contacting data originators if substatial use of individual time series is planned (fair use data policy).
p2007
sS'PR_COMMENT'
p2008
Nstp2009
Rp2010
sVGAW-WDCRG_legacy
p2011
g2
(g3
g4
(dp2012
S'PR_HOMEPAGE_URL'
p2013
NsS'PS_ID'
p2014
I1390
sS'OPEN_ACCESS'
p2015
I00
sS'PR_DESC'
p2016
VGAW-WDCRG legacy data converted from WDCGG, content is locked and data not available
p2017
sS'PR_STARTDATE'
p2018
g12
(S'\x07\xe4\n\x02\x00\x00\x00\x00\x00\x00'
p2019
tp2020
Rp2021
sS'PR_ENDDATE'
p2022
NsS'PR_ACRONYM'
p2023
g2011
sS'SYSTIME'
p2024
g2
(g19
g20
(lp2025
g12
(S'\x07\xde\x05\x01\x00\x00\x00\x00\x00\x00'
p2026
tp2027
Rp2028
aNatp2029
Rp2030
(dp2031
g28
S'[)'
p2032
sbsS'PR_NAME'
p2033
VGAW-WDCRG legacy data
p2034
sS'PR_DATAPOLICY'
p2035
NsS'PR_COMMENT'
p2036
Nstp2037
Rp2038
sVMOE
p2039
g2
(g3
g4
(dp2040
S'PR_HOMEPAGE_URL'
p2041
NsS'PS_ID'
p2042
I6555
sS'OPEN_ACCESS'
p2043
I00
sS'PR_DESC'
p2044
NsS'PR_STARTDATE'
p2045
g12
(S'\x07\xce\x01\x01\x00\x00\x00\x00\x00\x00'
p2046
tp2047
Rp2048
sS'PR_ENDDATE'
p2049
NsS'PR_ACRONYM'
p2050
g2039
sS'SYSTIME'
p2051
g2
(g19
g20
(lp2052
g12
(S'\x07\xde\x05\x01\x00\x00\x00\x00\x00\x00'
p2053
tp2054
Rp2055
aNatp2056
Rp2057
(dp2058
g28
S'[)'
p2059
sbsS'PR_NAME'
p2060
NsS'PR_DATAPOLICY'
p2061
VFor scientific purposes. We encourage contacting data originators if substatial use of individual time series is planned (fair use data policy).
p2062
sS'PR_COMMENT'
p2063
Nstp2064
Rp2065
sVPollenScience
p2066
g2
(g3
g4
(dp2067
S'PR_HOMEPAGE_URL'
p2068
Vhttps://pollenscience.eu
p2069
sS'PS_ID'
p2070
I8633
sS'OPEN_ACCESS'
p2071
I01
sS'PR_DESC'
p2072
VThe aim of Pollen Science is to collect and graphically display the data of different pollen measurement networks and stations.
p2073
sS'PR_STARTDATE'
p2074
g12
(S'\x07\xe7\t\x0f\x00\x00\x00\x00\x00\x00'
p2075
tp2076
Rp2077
sS'PR_ENDDATE'
p2078
NsS'PR_ACRONYM'
p2079
g2066
sS'SYSTIME'
p2080
g2
(g19
g20
(lp2081
g12
(S'\x07\xe7\t\x0f\x17\x08\x1b\x0bJ\xd2'
p2082
tp2083
Rp2084
aNatp2085
Rp2086
(dp2087
g28
S'[)'
p2088
sbsS'PR_NAME'
p2089
VPollen Science
p2090
sS'PR_DATAPOLICY'
p2091
NsS'PR_COMMENT'
p2092
Nstp2093
Rp2094
s.