(dp0
V1
p1
ccopy_reg
_reconstructor
p2
(cnilutility.datatypes
DataObject
p3
c__builtin__
dict
p4
(dp5
S'DL_COMMENT'
p6
NsS'DL_DATA_LEVEL'
p7
g1
sS'SYSTIME'
p8
g2
(cnilutility.datetime_helper
DatetimeInterval
p9
c__builtin__
list
p10
(lp11
cdatetime
datetime
p12
(S'\x07\xde\x05\x01\x00\x00\x00\x00\x00\x00'
p13
tp14
Rp15
aNatp16
Rp17
(dp18
S'bounds'
p19
S'[)'
p20
sbsS'DL_NAME'
p21
Vphysical parameters
p22
sS'DL_DESC'
p23
VData processed to physical parameters. Same time resolution as level 0. This data level is generally not meant for long term preservation in ebas and is mostly used for near realtime processing dataflow through EBAS.
p24
stp25
Rp26
sV1.5
p27
g2
(g3
g4
(dp28
S'DL_COMMENT'
p29
NsS'DL_DATA_LEVEL'
p30
g27
sS'SYSTIME'
p31
g2
(g9
g10
(lp32
g12
(S'\x07\xde\x05\x01\x00\x00\x00\x00\x00\x00'
p33
tp34
Rp35
aNatp36
Rp37
(dp38
g19
S'[)'
p39
sbsS'DL_NAME'
p40
Vprocessed, no manual QA
p41
sS'DL_DESC'
p42
VData processed to physical parameters, aggregated to hourly averages, info on atmospheric variability included. This format is the result of automated (unattended) near-real-time data processing. Not quality assured by human inspection.
p43
stp44
Rp45
sV0.5
p46
g2
(g3
g4
(dp47
S'DL_COMMENT'
p48
NsS'DL_DATA_LEVEL'
p49
g46
sS'SYSTIME'
p50
g2
(g9
g10
(lp51
g12
(S'\x07\xde\x05\x01\x00\x00\x00\x00\x00\x00'
p52
tp53
Rp54
aNatp55
Rp56
(dp57
g19
S'[)'
p58
sbsS'DL_NAME'
p59
Vraw instrument data, flagged
p60
sS'DL_DESC'
p61
VRaw data as they come out of the instrument. Original time resolution (native to instrument). Flag information included. This data level is generally not meant for long term preservation in ebas and is mostly used for near realtime processing through EBAS
p62
stp63
Rp64
sV0b
p65
g2
(g3
g4
(dp66
S'DL_COMMENT'
p67
NsS'DL_DATA_LEVEL'
p68
g65
sS'SYSTIME'
p69
g2
(g9
g10
(lp70
g12
(S'\x07\xde\x05\x01\x00\x00\x00\x00\x00\x00'
p71
tp72
Rp73
aNatp74
Rp75
(dp76
g19
S'[)'
p77
sbsS'DL_NAME'
p78
Vraw instrument data, automatically flagg
p79
sS'DL_DESC'
p80
VRaw data as they come out of the instrument. Original time resolution (native to instrument). Automatic flag information included.
p81
stp82
Rp83
sV0
p84
g2
(g3
g4
(dp85
S'DL_COMMENT'
p86
NsS'DL_DATA_LEVEL'
p87
g84
sS'SYSTIME'
p88
g2
(g9
g10
(lp89
g12
(S'\x07\xde\x05\x01\x00\x00\x00\x00\x00\x00'
p90
tp91
Rp92
aNatp93
Rp94
(dp95
g19
S'[)'
p96
sbsS'DL_NAME'
p97
Vraw instrument data
p98
sS'DL_DESC'
p99
VRaw data as they come out of the instrument. Original time resolution (native to instrument). This data level is generally not meant for long term preservation in ebas and is mostly used for near realtime processing dataflow through EBAS.
p100
stp101
Rp102
sV0a
p103
g2
(g3
g4
(dp104
S'DL_COMMENT'
p105
NsS'DL_DATA_LEVEL'
p106
g103
sS'SYSTIME'
p107
g2
(g9
g10
(lp108
g12
(S'\x07\xde\x05\x01\x00\x00\x00\x00\x00\x00'
p109
tp110
Rp111
aNatp112
Rp113
(dp114
g19
S'[)'
p115
sbsS'DL_NAME'
p116
Vraw instrument data, manually flagged
p117
sS'DL_DESC'
p118
VRaw data as they come out of the instrument. Original time resolution (native to instrument). Manual flag information included.
p119
stp120
Rp121
sV3b
p122
g2
(g3
g4
(dp123
S'DL_COMMENT'
p124
NsS'DL_DATA_LEVEL'
p125
g122
sS'SYSTIME'
p126
g2
(g9
g10
(lp127
g12
(S'\x07\xde\x05\x01\x00\x00\x00\x00\x00\x00'
p128
tp129
Rp130
aNatp131
Rp132
(dp133
g19
S'[)'
p134
sbsS'DL_NAME'
p135
Vderived nrt
p136
sS'DL_DESC'
p137
VData product generated from NRT data of one or several instruments
p138
stp139
Rp140
sV2
p141
g2
(g3
g4
(dp142
S'DL_COMMENT'
p143
NsS'DL_DATA_LEVEL'
p144
g141
sS'SYSTIME'
p145
g2
(g9
g10
(lp146
g12
(S'\x07\xde\x05\x01\x00\x00\x00\x00\x00\x00'
p147
tp148
Rp149
aNatp150
Rp151
(dp152
g19
S'[)'
p153
sbsS'DL_NAME'
p154
Vfinal
p155
sS'DL_DESC'
p156
VPhysical parameters, aggregated (if needed), info on variability recommended, quality assured by human inspection. This is the typical EBAS data level meant for dissemination and long term preservation.
p157
stp158
Rp159
sV3a
p160
g2
(g3
g4
(dp161
S'DL_COMMENT'
p162
NsS'DL_DATA_LEVEL'
p163
g160
sS'SYSTIME'
p164
g2
(g9
g10
(lp165
g12
(S'\x07\xde\x05\x01\x00\x00\x00\x00\x00\x00'
p166
tp167
Rp168
aNatp169
Rp170
(dp171
g19
S'[)'
p172
sbsS'DL_NAME'
p173
Vderived
p174
sS'DL_DESC'
p175
VData product generated from lower data levels of one or several instruments. Otherwise like level 2.
p176
stp177
Rp178
s.